

Microchip MPLAB XC8 Assembler V2.10 build 88905656 
                                                                                               Fri Feb 07 23:07:23 2020

Microchip MPLAB XC8 C Compiler v2.10 (Free license) build 20190730164152 Og1 
     1                           	processor	16F887
     2                           	opt	pw 120
     3                           	opt	flic
     4                           	psect	idataBANK0,global,class=CODE,delta=2
     5                           	psect	strings,global,class=STRING,delta=2
     6                           	psect	cinit,global,class=CODE,merge=1,delta=2
     7                           	psect	bssCOMMON,global,class=COMMON,space=1,delta=1
     8                           	psect	bssBANK0,global,class=BANK0,space=1,delta=1
     9                           	psect	dataBANK0,global,class=BANK0,space=1,delta=1
    10                           	psect	cstackCOMMON,global,class=COMMON,space=1,delta=1
    11                           	psect	cstackBANK0,global,class=BANK0,space=1,delta=1
    12                           	psect	maintext,global,class=CODE,split=1,delta=2
    13                           	psect	text1,local,class=CODE,merge=1,delta=2
    14                           	psect	text2,local,class=CODE,merge=1,delta=2
    15                           	psect	text3,local,class=CODE,merge=1,delta=2
    16                           	psect	text4,local,class=CODE,merge=1,delta=2
    17                           	psect	text5,local,class=CODE,merge=1,delta=2
    18                           	psect	text6,local,class=CODE,merge=1,delta=2
    19                           	psect	text7,local,class=CODE,merge=1,delta=2
    20                           	psect	text8,local,class=CODE,merge=1,delta=2,group=1
    21                           	psect	text9,local,class=CODE,merge=1,delta=2,group=1
    22                           	psect	text10,local,class=CODE,merge=1,delta=2,group=1
    23                           	psect	text11,local,class=CODE,merge=1,delta=2
    24                           	psect	text12,local,class=CODE,merge=1,delta=2
    25                           	psect	text13,local,class=CODE,merge=1,delta=2
    26                           	psect	text14,local,class=CODE,merge=1,delta=2
    27                           	psect	text15,local,class=CODE,merge=1,delta=2
    28                           	psect	text16,local,class=CODE,merge=1,delta=2
    29                           	psect	text17,local,class=CODE,merge=1,delta=2,group=1
    30                           	psect	text18,local,class=CODE,merge=1,delta=2,group=1
    31                           	psect	text19,local,class=CODE,merge=1,delta=2,group=1
    32                           	psect	text20,local,class=CODE,merge=1,delta=2,group=1
    33                           	psect	text21,local,class=CODE,merge=1,delta=2
    34                           	psect	text22,local,class=CODE,merge=1,delta=2
    35                           	psect	text23,local,class=CODE,merge=1,delta=2
    36                           	psect	text24,local,class=CODE,merge=1,delta=2
    37                           	psect	intentry,global,class=CODE,delta=2
    38                           	dabs	1,0x7E,2
    39  0000                     
    40                           ; Version 2.10
    41                           ; Generated 31/07/2019 GMT
    42                           ; 
    43                           ; Copyright © 2019, Microchip Technology Inc. and its subsidiaries ("Microchip")
    44                           ; All rights reserved.
    45                           ; 
    46                           ; This software is developed by Microchip Technology Inc. and its subsidiaries ("Microch
      +                          ip").
    47                           ; 
    48                           ; Redistribution and use in source and binary forms, with or without modification, are
    49                           ; permitted provided that the following conditions are met:
    50                           ; 
    51                           ;     1. Redistributions of source code must retain the above copyright notice, this lis
      +                          t of
    52                           ;        conditions and the following disclaimer.
    53                           ; 
    54                           ;     2. Redistributions in binary form must reproduce the above copyright notice, this 
      +                          list
    55                           ;        of conditions and the following disclaimer in the documentation and/or other
    56                           ;        materials provided with the distribution.
    57                           ; 
    58                           ;     3. Microchip's name may not be used to endorse or promote products derived from th
      +                          is
    59                           ;        software without specific prior written permission.
    60                           ; 
    61                           ; THIS SOFTWARE IS PROVIDED BY MICROCHIP "AS IS" AND ANY EXPRESS OR IMPLIED WARRANTIES,
    62                           ; INCLUDING, BUT NOT LIMITED TO, THE IMPLIED WARRANTIES OF MERCHANTABILITY AND FITNESS F
      +                          OR
    63                           ; PURPOSE ARE DISCLAIMED.  IN NO EVENT SHALL MICROCHIP BE LIABLE FOR ANY DIRECT, INDIREC
      +                          T,
    64                           ; INCIDENTAL, SPECIAL, EXEMPLARY, OR CONSEQUENTIAL DAMAGES (INCLUDING BUT NOT LIMITED TO
    65                           ; PROCUREMENT OF SUBSTITUTE GOODS OR SERVICES; LOSS OF USE, DATA OR PROFITS; OR BUSINESS
    66                           ; INTERRUPTION) HOWSOEVER CAUSED AND ON ANY THEORY OF LIABILITY, WHETHER IN CONTRACT, ST
      +                          RICT
    67                           ; LIABILITY, OR TORT (INCLUDING NEGLIGENCE OR OTHERWISE) ARISING IN ANY WAY OUT OF THE U
      +                          SE OF
    68                           ; THIS SOFTWARE, EVEN IF ADVISED OF THE POSSIBILITY OF SUCH DAMAGE.
    69                           ; 
    70                           ; 
    71                           ; Code-generator required, PIC16F887 Definitions
    72                           ; 
    73                           ; SFR Addresses
    74  0000                     	;# 
    75  0001                     	;# 
    76  0002                     	;# 
    77  0003                     	;# 
    78  0004                     	;# 
    79  0005                     	;# 
    80  0006                     	;# 
    81  0007                     	;# 
    82  0008                     	;# 
    83  0009                     	;# 
    84  000A                     	;# 
    85  000B                     	;# 
    86  000C                     	;# 
    87  000D                     	;# 
    88  000E                     	;# 
    89  000E                     	;# 
    90  000F                     	;# 
    91  0010                     	;# 
    92  0011                     	;# 
    93  0012                     	;# 
    94  0013                     	;# 
    95  0014                     	;# 
    96  0015                     	;# 
    97  0015                     	;# 
    98  0016                     	;# 
    99  0017                     	;# 
   100  0018                     	;# 
   101  0019                     	;# 
   102  001A                     	;# 
   103  001B                     	;# 
   104  001B                     	;# 
   105  001C                     	;# 
   106  001D                     	;# 
   107  001E                     	;# 
   108  001F                     	;# 
   109  0081                     	;# 
   110  0085                     	;# 
   111  0086                     	;# 
   112  0087                     	;# 
   113  0088                     	;# 
   114  0089                     	;# 
   115  008C                     	;# 
   116  008D                     	;# 
   117  008E                     	;# 
   118  008F                     	;# 
   119  0090                     	;# 
   120  0091                     	;# 
   121  0092                     	;# 
   122  0093                     	;# 
   123  0093                     	;# 
   124  0093                     	;# 
   125  0094                     	;# 
   126  0095                     	;# 
   127  0096                     	;# 
   128  0097                     	;# 
   129  0098                     	;# 
   130  0099                     	;# 
   131  009A                     	;# 
   132  009B                     	;# 
   133  009C                     	;# 
   134  009D                     	;# 
   135  009E                     	;# 
   136  009F                     	;# 
   137  0105                     	;# 
   138  0107                     	;# 
   139  0108                     	;# 
   140  0109                     	;# 
   141  010C                     	;# 
   142  010C                     	;# 
   143  010D                     	;# 
   144  010E                     	;# 
   145  010F                     	;# 
   146  0185                     	;# 
   147  0187                     	;# 
   148  0188                     	;# 
   149  0189                     	;# 
   150  018C                     	;# 
   151  018D                     	;# 
   152  0000                     	;# 
   153  0001                     	;# 
   154  0002                     	;# 
   155  0003                     	;# 
   156  0004                     	;# 
   157  0005                     	;# 
   158  0006                     	;# 
   159  0007                     	;# 
   160  0008                     	;# 
   161  0009                     	;# 
   162  000A                     	;# 
   163  000B                     	;# 
   164  000C                     	;# 
   165  000D                     	;# 
   166  000E                     	;# 
   167  000E                     	;# 
   168  000F                     	;# 
   169  0010                     	;# 
   170  0011                     	;# 
   171  0012                     	;# 
   172  0013                     	;# 
   173  0014                     	;# 
   174  0015                     	;# 
   175  0015                     	;# 
   176  0016                     	;# 
   177  0017                     	;# 
   178  0018                     	;# 
   179  0019                     	;# 
   180  001A                     	;# 
   181  001B                     	;# 
   182  001B                     	;# 
   183  001C                     	;# 
   184  001D                     	;# 
   185  001E                     	;# 
   186  001F                     	;# 
   187  0081                     	;# 
   188  0085                     	;# 
   189  0086                     	;# 
   190  0087                     	;# 
   191  0088                     	;# 
   192  0089                     	;# 
   193  008C                     	;# 
   194  008D                     	;# 
   195  008E                     	;# 
   196  008F                     	;# 
   197  0090                     	;# 
   198  0091                     	;# 
   199  0092                     	;# 
   200  0093                     	;# 
   201  0093                     	;# 
   202  0093                     	;# 
   203  0094                     	;# 
   204  0095                     	;# 
   205  0096                     	;# 
   206  0097                     	;# 
   207  0098                     	;# 
   208  0099                     	;# 
   209  009A                     	;# 
   210  009B                     	;# 
   211  009C                     	;# 
   212  009D                     	;# 
   213  009E                     	;# 
   214  009F                     	;# 
   215  0105                     	;# 
   216  0107                     	;# 
   217  0108                     	;# 
   218  0109                     	;# 
   219  010C                     	;# 
   220  010C                     	;# 
   221  010D                     	;# 
   222  010E                     	;# 
   223  010F                     	;# 
   224  0185                     	;# 
   225  0187                     	;# 
   226  0188                     	;# 
   227  0189                     	;# 
   228  018C                     	;# 
   229  018D                     	;# 
   230  0000                     	;# 
   231  0001                     	;# 
   232  0002                     	;# 
   233  0003                     	;# 
   234  0004                     	;# 
   235  0005                     	;# 
   236  0006                     	;# 
   237  0007                     	;# 
   238  0008                     	;# 
   239  0009                     	;# 
   240  000A                     	;# 
   241  000B                     	;# 
   242  000C                     	;# 
   243  000D                     	;# 
   244  000E                     	;# 
   245  000E                     	;# 
   246  000F                     	;# 
   247  0010                     	;# 
   248  0011                     	;# 
   249  0012                     	;# 
   250  0013                     	;# 
   251  0014                     	;# 
   252  0015                     	;# 
   253  0015                     	;# 
   254  0016                     	;# 
   255  0017                     	;# 
   256  0018                     	;# 
   257  0019                     	;# 
   258  001A                     	;# 
   259  001B                     	;# 
   260  001B                     	;# 
   261  001C                     	;# 
   262  001D                     	;# 
   263  001E                     	;# 
   264  001F                     	;# 
   265  0081                     	;# 
   266  0085                     	;# 
   267  0086                     	;# 
   268  0087                     	;# 
   269  0088                     	;# 
   270  0089                     	;# 
   271  008C                     	;# 
   272  008D                     	;# 
   273  008E                     	;# 
   274  008F                     	;# 
   275  0090                     	;# 
   276  0091                     	;# 
   277  0092                     	;# 
   278  0093                     	;# 
   279  0093                     	;# 
   280  0093                     	;# 
   281  0094                     	;# 
   282  0095                     	;# 
   283  0096                     	;# 
   284  0097                     	;# 
   285  0098                     	;# 
   286  0099                     	;# 
   287  009A                     	;# 
   288  009B                     	;# 
   289  009C                     	;# 
   290  009D                     	;# 
   291  009E                     	;# 
   292  009F                     	;# 
   293  0105                     	;# 
   294  0107                     	;# 
   295  0108                     	;# 
   296  0109                     	;# 
   297  010C                     	;# 
   298  010C                     	;# 
   299  010D                     	;# 
   300  010E                     	;# 
   301  010F                     	;# 
   302  0185                     	;# 
   303  0187                     	;# 
   304  0188                     	;# 
   305  0189                     	;# 
   306  018C                     	;# 
   307  018D                     	;# 
   308  0000                     	;# 
   309  0001                     	;# 
   310  0002                     	;# 
   311  0003                     	;# 
   312  0004                     	;# 
   313  0005                     	;# 
   314  0006                     	;# 
   315  0007                     	;# 
   316  0008                     	;# 
   317  0009                     	;# 
   318  000A                     	;# 
   319  000B                     	;# 
   320  000C                     	;# 
   321  000D                     	;# 
   322  000E                     	;# 
   323  000E                     	;# 
   324  000F                     	;# 
   325  0010                     	;# 
   326  0011                     	;# 
   327  0012                     	;# 
   328  0013                     	;# 
   329  0014                     	;# 
   330  0015                     	;# 
   331  0015                     	;# 
   332  0016                     	;# 
   333  0017                     	;# 
   334  0018                     	;# 
   335  0019                     	;# 
   336  001A                     	;# 
   337  001B                     	;# 
   338  001B                     	;# 
   339  001C                     	;# 
   340  001D                     	;# 
   341  001E                     	;# 
   342  001F                     	;# 
   343  0081                     	;# 
   344  0085                     	;# 
   345  0086                     	;# 
   346  0087                     	;# 
   347  0088                     	;# 
   348  0089                     	;# 
   349  008C                     	;# 
   350  008D                     	;# 
   351  008E                     	;# 
   352  008F                     	;# 
   353  0090                     	;# 
   354  0091                     	;# 
   355  0092                     	;# 
   356  0093                     	;# 
   357  0093                     	;# 
   358  0093                     	;# 
   359  0094                     	;# 
   360  0095                     	;# 
   361  0096                     	;# 
   362  0097                     	;# 
   363  0098                     	;# 
   364  0099                     	;# 
   365  009A                     	;# 
   366  009B                     	;# 
   367  009C                     	;# 
   368  009D                     	;# 
   369  009E                     	;# 
   370  009F                     	;# 
   371  0105                     	;# 
   372  0107                     	;# 
   373  0108                     	;# 
   374  0109                     	;# 
   375  010C                     	;# 
   376  010C                     	;# 
   377  010D                     	;# 
   378  010E                     	;# 
   379  010F                     	;# 
   380  0185                     	;# 
   381  0187                     	;# 
   382  0188                     	;# 
   383  0189                     	;# 
   384  018C                     	;# 
   385  018D                     	;# 
   386  0000                     	;# 
   387  0001                     	;# 
   388  0002                     	;# 
   389  0003                     	;# 
   390  0004                     	;# 
   391  0005                     	;# 
   392  0006                     	;# 
   393  0007                     	;# 
   394  0008                     	;# 
   395  0009                     	;# 
   396  000A                     	;# 
   397  000B                     	;# 
   398  000C                     	;# 
   399  000D                     	;# 
   400  000E                     	;# 
   401  000E                     	;# 
   402  000F                     	;# 
   403  0010                     	;# 
   404  0011                     	;# 
   405  0012                     	;# 
   406  0013                     	;# 
   407  0014                     	;# 
   408  0015                     	;# 
   409  0015                     	;# 
   410  0016                     	;# 
   411  0017                     	;# 
   412  0018                     	;# 
   413  0019                     	;# 
   414  001A                     	;# 
   415  001B                     	;# 
   416  001B                     	;# 
   417  001C                     	;# 
   418  001D                     	;# 
   419  001E                     	;# 
   420  001F                     	;# 
   421  0081                     	;# 
   422  0085                     	;# 
   423  0086                     	;# 
   424  0087                     	;# 
   425  0088                     	;# 
   426  0089                     	;# 
   427  008C                     	;# 
   428  008D                     	;# 
   429  008E                     	;# 
   430  008F                     	;# 
   431  0090                     	;# 
   432  0091                     	;# 
   433  0092                     	;# 
   434  0093                     	;# 
   435  0093                     	;# 
   436  0093                     	;# 
   437  0094                     	;# 
   438  0095                     	;# 
   439  0096                     	;# 
   440  0097                     	;# 
   441  0098                     	;# 
   442  0099                     	;# 
   443  009A                     	;# 
   444  009B                     	;# 
   445  009C                     	;# 
   446  009D                     	;# 
   447  009E                     	;# 
   448  009F                     	;# 
   449  0105                     	;# 
   450  0107                     	;# 
   451  0108                     	;# 
   452  0109                     	;# 
   453  010C                     	;# 
   454  010C                     	;# 
   455  010D                     	;# 
   456  010E                     	;# 
   457  010F                     	;# 
   458  0185                     	;# 
   459  0187                     	;# 
   460  0188                     	;# 
   461  0189                     	;# 
   462  018C                     	;# 
   463  018D                     	;# 
   464                           
   465                           	psect	idataBANK0
   466  07FC                     __pidataBANK0:	
   467                           
   468                           ;initializer for _contador
   469  07FC  349B               	retlw	155
   470  001A                     _RCREG	set	26
   471  0019                     _TXREG	set	25
   472  0018                     _RCSTAbits	set	24
   473  000B                     _INTCON	set	11
   474  001E                     _ADRESH	set	30
   475  001F                     _ADCON0bits	set	31
   476  000C                     _PIR1bits	set	12
   477  001F                     _ADCON0	set	31
   478  0065                     _RCIF	set	101
   479  00C4                     _CREN	set	196
   480  00C7                     _SPEN	set	199
   481  0040                     _RD0	set	64
   482  0041                     _RD1	set	65
   483  002F                     _RA7	set	47
   484  002E                     _RA6	set	46
   485  002D                     _RA5	set	45
   486  002C                     _RA4	set	44
   487  002B                     _RA3	set	43
   488  002A                     _RA2	set	42
   489  0029                     _RA1	set	41
   490  0028                     _RA0	set	40
   491  0098                     _TXSTAbits	set	152
   492  0099                     _SPBRG	set	153
   493  009F                     _ADCON1bits	set	159
   494  0088                     _TRISD	set	136
   495  0085                     _TRISA	set	133
   496  0086                     _TRISB	set	134
   497  008C                     _PIE1bits	set	140
   498  009F                     _ADCON1	set	159
   499  04C1                     _TRMT	set	1217
   500  04C5                     _TXEN	set	1221
   501  043E                     _TRISC6	set	1086
   502  043F                     _TRISC7	set	1087
   503  04C4                     _SYNC	set	1220
   504  0187                     _BAUDCTLbits	set	391
   505  0189                     _ANSELH	set	393
   506  0188                     _ANSEL	set	392
   507                           
   508                           	psect	strings
   509  1000                     __pstrings:	
   510  1000                     stringtab:	
   511  1000                     __stringtab:	
   512  1000                     stringcode:	
   513                           ;	String table - string pointers are 1 byte each
   514                           
   515  1000                     stringdir:	
   516  1000  3010               	movlw	high stringdir
   517  1001  008A               	movwf	10
   518  1002  0804               	movf	4,w
   519  1003  0A84               	incf	4,f
   520  1004  0782               	addwf	2,f
   521  1005                     __stringbase:	
   522  1005  3400               	retlw	0
   523  1006                     __end_of__stringtab:	
   524  1006                     STR_3:	
   525  1006  3443               	retlw	67	;'C'
   526  1007  344F               	retlw	79	;'O'
   527  1008  344E               	retlw	78	;'N'
   528  1009  3454               	retlw	84	;'T'
   529  100A  3400               	retlw	0
   530  100B                     STR_1:	
   531  100B  3453               	retlw	83	;'S'
   532  100C  3450               	retlw	80	;'P'
   533  100D  3431               	retlw	49	;'1'
   534  100E  3400               	retlw	0
   535  100F                     STR_2:	
   536  100F  3453               	retlw	83	;'S'
   537  1010  3450               	retlw	80	;'P'
   538  1011  3432               	retlw	50	;'2'
   539  1012  3400               	retlw	0
   540  1013                     STR_44:	
   541  1013  342E               	retlw	46	;'.'
   542  1014  3400               	retlw	0
   543  1015                     STR_4:	
   544  1015  3430               	retlw	48	;'0'
   545  1016  3400               	retlw	0
   546  1017                     STR_7:	
   547  1017  3433               	retlw	51	;'3'
   548  1018  3400               	retlw	0
   549  1019                     STR_8:	
   550  1019  3434               	retlw	52	;'4'
   551  101A  3400               	retlw	0
   552  101B                     STR_9:	
   553  101B  3435               	retlw	53	;'5'
   554  101C  3400               	retlw	0
   555  101D                     STR_10:	
   556  101D  3436               	retlw	54	;'6'
   557  101E  3400               	retlw	0
   558  101F                     STR_11:	
   559  101F  3437               	retlw	55	;'7'
   560  1020  3400               	retlw	0
   561  1021                     STR_12:	
   562  1021  3438               	retlw	56	;'8'
   563  1022  3400               	retlw	0
   564  1023                     STR_13:	
   565  1023  3439               	retlw	57	;'9'
   566  1024  3400               	retlw	0
   567  1025                     STR_65:	
   568  1025  3456               	retlw	86	;'V'
   569  1026  3400               	retlw	0
   570  1013                     
   571                           ; #config settings
   572  0000                     
   573                           	psect	cinit
   574  0011                     start_initialization:	
   575  0011                     __initialization:	
   576                           
   577                           ; Initialize objects allocated to BANK0
   578  0011  120A  118A  27FC  120A  118A  	fcall	__pidataBANK0	;fetch initializer
   579  0016  00E8               	movwf	__pdataBANK0& (0+127)
   580                           
   581                           ; Clear objects allocated to BANK0
   582  0017  01E5               	clrf	__pbssBANK0& (0+127)
   583  0018  01E6               	clrf	(__pbssBANK0+1)& (0+127)
   584  0019  01E7               	clrf	(__pbssBANK0+2)& (0+127)
   585                           
   586                           ; Clear objects allocated to COMMON
   587  001A  01F7               	clrf	__pbssCOMMON& (0+127)
   588  001B  01F8               	clrf	(__pbssCOMMON+1)& (0+127)
   589  001C                     end_of_initialization:	
   590                           ;End of C runtime variable initialization code
   591                           
   592  001C                     __end_of__initialization:	
   593  001C  0183               	clrf	3
   594  001D  120A  158A  2B48   	ljmp	_main	;jump to C main() function
   595                           
   596                           	psect	bssCOMMON
   597  0077                     __pbssCOMMON:	
   598  0077                     _send:	
   599  0077                     	ds	1
   600  0078                     _ADCchannel:	
   601  0078                     	ds	1
   602                           
   603                           	psect	bssBANK0
   604  0065                     __pbssBANK0:	
   605  0065                     _recived:	
   606  0065                     	ds	1
   607  0066                     _ADCval2:	
   608  0066                     	ds	1
   609  0067                     _ADCval1:	
   610  0067                     	ds	1
   611                           
   612                           	psect	dataBANK0
   613  0068                     __pdataBANK0:	
   614  0068                     _contador:	
   615  0068                     	ds	1
   616                           
   617                           	psect	cstackCOMMON
   618  0070                     __pcstackCOMMON:	
   619  0070                     ?_usart_setup:	
   620  0070                     ?_UART_Write:	
   621                           ; 1 bytes @ 0x0
   622                           
   623  0070                     ?_UART_Data_Ready:	
   624                           ; 1 bytes @ 0x0
   625                           
   626  0070                     ?_UART_Read:	
   627                           ; 1 bytes @ 0x0
   628                           
   629  0070                     ?_cntdisp:	
   630                           ; 1 bytes @ 0x0
   631                           
   632  0070                     ?_lcd_databits:	
   633                           ; 1 bytes @ 0x0
   634                           
   635  0070                     ?_lcd_stinst5:	
   636                           ; 1 bytes @ 0x0
   637                           
   638  0070                     ?_lcd_stinst1:	
   639                           ; 1 bytes @ 0x0
   640                           
   641  0070                     ?_lcd_inst:	
   642                           ; 1 bytes @ 0x0
   643                           
   644  0070                     ?_lcd_start:	
   645                           ; 1 bytes @ 0x0
   646                           
   647  0070                     ?_lcd_writechar:	
   648                           ; 1 bytes @ 0x0
   649                           
   650  0070                     ?_lcd_wstring:	
   651                           ; 1 bytes @ 0x0
   652                           
   653  0070                     ?_initADC:	
   654                           ; 1 bytes @ 0x0
   655                           
   656  0070                     ?_ISR:	
   657                           ; 1 bytes @ 0x0
   658                           
   659  0070                     ??_ISR:	
   660                           ; 1 bytes @ 0x0
   661                           
   662  0070                     ?_main:	
   663                           ; 1 bytes @ 0x0
   664                           
   665                           
   666                           ; 1 bytes @ 0x0
   667  0070                     	ds	5
   668  0075                     ??_usart_setup:	
   669  0075                     ??_UART_Write:	
   670                           ; 1 bytes @ 0x5
   671                           
   672  0075                     ??_UART_Data_Ready:	
   673                           ; 1 bytes @ 0x5
   674                           
   675  0075                     ??_UART_Read:	
   676                           ; 1 bytes @ 0x5
   677                           
   678  0075                     ??_lcd_databits:	
   679                           ; 1 bytes @ 0x5
   680                           
   681  0075                     ??_initADC:	
   682                           ; 1 bytes @ 0x5
   683                           
   684  0075                     ??___awdiv:	
   685                           ; 1 bytes @ 0x5
   686                           
   687  0075                     ??___awmod:	
   688                           ; 1 bytes @ 0x5
   689                           
   690  0075                     ?__Umul8_16:	
   691                           ; 1 bytes @ 0x5
   692                           
   693  0075                     lcd_databits@data:	
   694                           ; 2 bytes @ 0x5
   695                           
   696  0075                     UART_Write@data:	
   697                           ; 1 bytes @ 0x5
   698                           
   699  0075                     __Umul8_16@multiplicand:	
   700                           ; 1 bytes @ 0x5
   701                           
   702                           
   703                           ; 1 bytes @ 0x5
   704  0075                     	ds	1
   705  0076                     ??_lcd_stinst1:	
   706  0076                     lcd_stinst5@iord:	
   707                           ; 1 bytes @ 0x6
   708                           
   709  0076                     lcd_inst@iord:	
   710                           ; 1 bytes @ 0x6
   711                           
   712  0076                     lcd_writechar@m:	
   713                           ; 1 bytes @ 0x6
   714                           
   715                           
   716                           ; 1 bytes @ 0x6
   717  0076                     	ds	1
   718  0077                     ??_dispval1:	
   719  0077                     ??_lcd_wstring:	
   720                           ; 1 bytes @ 0x7
   721                           
   722                           
   723                           	psect	cstackBANK0
   724  0020                     __pcstackBANK0:	
   725                           ; 1 bytes @ 0x7
   726                           
   727  0020                     ??__Umul8_16:	
   728  0020                     ??_lcd_stinst5:	
   729                           ; 1 bytes @ 0x0
   730                           
   731  0020                     ??_lcd_inst:	
   732                           ; 1 bytes @ 0x0
   733                           
   734  0020                     ??_lcd_writechar:	
   735                           ; 1 bytes @ 0x0
   736                           
   737  0020                     ?___awdiv:	
   738                           ; 1 bytes @ 0x0
   739                           
   740  0020                     ?___awmod:	
   741                           ; 2 bytes @ 0x0
   742                           
   743  0020                     ?___xxtofl:	
   744                           ; 2 bytes @ 0x0
   745                           
   746  0020                     lcd_stinst1@iord:	
   747                           ; 4 bytes @ 0x0
   748                           
   749  0020                     initADC@var1:	
   750                           ; 1 bytes @ 0x0
   751                           
   752  0020                     UART_Read@intro:	
   753                           ; 1 bytes @ 0x0
   754                           
   755  0020                     ___awdiv@divisor:	
   756                           ; 2 bytes @ 0x0
   757                           
   758  0020                     ___awmod@divisor:	
   759                           ; 2 bytes @ 0x0
   760                           
   761  0020                     ___xxtofl@val:	
   762                           ; 2 bytes @ 0x0
   763                           
   764                           
   765                           ; 4 bytes @ 0x0
   766  0020                     	ds	2
   767  0022                     ??_lcd_start:	
   768  0022                     ?_lcd_cursor_set:	
   769                           ; 1 bytes @ 0x2
   770                           
   771  0022                     lcd_cursor_set@y:	
   772                           ; 1 bytes @ 0x2
   773                           
   774  0022                     lcd_wstring@i:	
   775                           ; 1 bytes @ 0x2
   776                           
   777  0022                     ___awdiv@dividend:	
   778                           ; 2 bytes @ 0x2
   779                           
   780  0022                     ___awmod@dividend:	
   781                           ; 2 bytes @ 0x2
   782                           
   783  0022                     __Umul8_16@product:	
   784                           ; 2 bytes @ 0x2
   785                           
   786                           
   787                           ; 2 bytes @ 0x2
   788  0022                     	ds	1
   789  0023                     ??_lcd_cursor_set:	
   790                           
   791                           ; 1 bytes @ 0x3
   792  0023                     	ds	1
   793  0024                     ??___xxtofl:	
   794  0024                     lcd_cursor_set@x:	
   795                           ; 1 bytes @ 0x4
   796                           
   797  0024                     lcd_wstring@a:	
   798                           ; 1 bytes @ 0x4
   799                           
   800  0024                     ___awdiv@counter:	
   801                           ; 1 bytes @ 0x4
   802                           
   803  0024                     ___awmod@counter:	
   804                           ; 1 bytes @ 0x4
   805                           
   806  0024                     __Umul8_16@word_mpld:	
   807                           ; 1 bytes @ 0x4
   808                           
   809                           
   810                           ; 2 bytes @ 0x4
   811  0024                     	ds	1
   812  0025                     lcd_cursor_set@a:	
   813  0025                     ___awdiv@sign:	
   814                           ; 1 bytes @ 0x5
   815                           
   816  0025                     ___awmod@sign:	
   817                           ; 1 bytes @ 0x5
   818                           
   819                           
   820                           ; 1 bytes @ 0x5
   821  0025                     	ds	1
   822  0026                     __Umul8_16@multiplier:	
   823  0026                     ___awdiv@quotient:	
   824                           ; 1 bytes @ 0x6
   825                           
   826                           
   827                           ; 2 bytes @ 0x6
   828  0026                     	ds	1
   829  0027                     ?___flmul:	
   830  0027                     ___flmul@b:	
   831                           ; 4 bytes @ 0x7
   832                           
   833                           
   834                           ; 4 bytes @ 0x7
   835  0027                     	ds	1
   836  0028                     ??_cntdisp:	
   837  0028                     ___xxtofl@sign:	
   838                           ; 1 bytes @ 0x8
   839                           
   840                           
   841                           ; 1 bytes @ 0x8
   842  0028                     	ds	1
   843  0029                     ___xxtofl@exp:	
   844                           
   845                           ; 1 bytes @ 0x9
   846  0029                     	ds	1
   847  002A                     cntdisp@ent1:	
   848  002A                     ___xxtofl@arg:	
   849                           ; 2 bytes @ 0xA
   850                           
   851                           
   852                           ; 4 bytes @ 0xA
   853  002A                     	ds	1
   854  002B                     ___flmul@a:	
   855                           
   856                           ; 4 bytes @ 0xB
   857  002B                     	ds	1
   858  002C                     cntdisp@ent2:	
   859                           
   860                           ; 2 bytes @ 0xC
   861  002C                     	ds	2
   862  002E                     ?___fldiv:	
   863  002E                     cntdisp@ent3:	
   864                           ; 4 bytes @ 0xE
   865                           
   866  002E                     ___fldiv@a:	
   867                           ; 2 bytes @ 0xE
   868                           
   869                           
   870                           ; 4 bytes @ 0xE
   871  002E                     	ds	1
   872  002F                     ??___flmul:	
   873                           
   874                           ; 1 bytes @ 0xF
   875  002F                     	ds	1
   876  0030                     cntdisp@datac:	
   877                           
   878                           ; 1 bytes @ 0x10
   879  0030                     	ds	1
   880  0031                     cntdisp@vals:	
   881                           
   882                           ; 2 bytes @ 0x11
   883  0031                     	ds	1
   884  0032                     ___fldiv@b:	
   885                           
   886                           ; 4 bytes @ 0x12
   887  0032                     	ds	2
   888  0034                     ___flmul@sign:	
   889                           
   890                           ; 1 bytes @ 0x14
   891  0034                     	ds	1
   892  0035                     ___flmul@aexp:	
   893                           
   894                           ; 1 bytes @ 0x15
   895  0035                     	ds	1
   896  0036                     ??___fldiv:	
   897  0036                     ___flmul@grs:	
   898                           ; 1 bytes @ 0x16
   899                           
   900                           
   901                           ; 4 bytes @ 0x16
   902  0036                     	ds	4
   903  003A                     ___flmul@bexp:	
   904                           
   905                           ; 1 bytes @ 0x1A
   906  003A                     	ds	1
   907  003B                     ___fldiv@rem:	
   908  003B                     ___flmul@prod:	
   909                           ; 4 bytes @ 0x1B
   910                           
   911                           
   912                           ; 4 bytes @ 0x1B
   913  003B                     	ds	4
   914  003F                     ___fldiv@sign:	
   915  003F                     ___flmul@temp:	
   916                           ; 1 bytes @ 0x1F
   917                           
   918                           
   919                           ; 2 bytes @ 0x1F
   920  003F                     	ds	1
   921  0040                     ___fldiv@new_exp:	
   922                           
   923                           ; 2 bytes @ 0x20
   924  0040                     	ds	1
   925  0041                     ?___fltol:	
   926  0041                     ___fltol@f1:	
   927                           ; 4 bytes @ 0x21
   928                           
   929                           
   930                           ; 4 bytes @ 0x21
   931  0041                     	ds	1
   932  0042                     ___fldiv@grs:	
   933                           
   934                           ; 4 bytes @ 0x22
   935  0042                     	ds	3
   936  0045                     ??___fltol:	
   937                           
   938                           ; 1 bytes @ 0x25
   939  0045                     	ds	1
   940  0046                     ___fldiv@bexp:	
   941                           
   942                           ; 1 bytes @ 0x26
   943  0046                     	ds	1
   944  0047                     ___fldiv@aexp:	
   945                           
   946                           ; 1 bytes @ 0x27
   947  0047                     	ds	3
   948  004A                     ___fltol@sign1:	
   949                           
   950                           ; 1 bytes @ 0x2A
   951  004A                     	ds	1
   952  004B                     ___fltol@exp1:	
   953                           
   954                           ; 1 bytes @ 0x2B
   955  004B                     	ds	1
   956  004C                     ?_dispval1:	
   957  004C                     ?_dispval2:	
   958                           ; 1 bytes @ 0x2C
   959                           
   960  004C                     dispval1@dataf:	
   961                           ; 1 bytes @ 0x2C
   962                           
   963  004C                     dispval2@dataf:	
   964                           ; 4 bytes @ 0x2C
   965                           
   966                           
   967                           ; 4 bytes @ 0x2C
   968  004C                     	ds	4
   969  0050                     ??_dispval2:	
   970  0050                     dispval1@dec2:	
   971                           ; 1 bytes @ 0x30
   972                           
   973                           
   974                           ; 2 bytes @ 0x30
   975  0050                     	ds	1
   976  0051                     dispval2@dec2:	
   977                           
   978                           ; 2 bytes @ 0x31
   979  0051                     	ds	1
   980  0052                     dispval1@dec1:	
   981                           
   982                           ; 2 bytes @ 0x32
   983  0052                     	ds	1
   984  0053                     dispval2@dec1:	
   985                           
   986                           ; 2 bytes @ 0x33
   987  0053                     	ds	1
   988  0054                     dispval1@ent:	
   989                           
   990                           ; 2 bytes @ 0x34
   991  0054                     	ds	1
   992  0055                     dispval2@ent:	
   993                           
   994                           ; 2 bytes @ 0x35
   995  0055                     	ds	1
   996  0056                     dispval1@vals:	
   997                           
   998                           ; 2 bytes @ 0x36
   999  0056                     	ds	1
  1000  0057                     dispval2@vals:	
  1001                           
  1002                           ; 2 bytes @ 0x37
  1003  0057                     	ds	2
  1004  0059                     ??_main:	
  1005                           
  1006                           ; 1 bytes @ 0x39
  1007  0059                     	ds	4
  1008  005D                     main@valf1:	
  1009                           
  1010                           ; 4 bytes @ 0x3D
  1011  005D                     	ds	4
  1012  0061                     main@valf2:	
  1013                           
  1014                           ; 4 bytes @ 0x41
  1015  0061                     	ds	4
  1016                           
  1017                           	psect	maintext
  1018  0B48                     __pmaintext:	
  1019 ;;
  1020 ;;Main: autosize = 0, tempsize = 4, incstack = 0, save=0
  1021 ;;
  1022 ;; *************** function _main *****************
  1023 ;; Defined at:
  1024 ;;		line 107 in file "LabLCDisp.c"
  1025 ;; Parameters:    Size  Location     Type
  1026 ;;		None
  1027 ;; Auto vars:     Size  Location     Type
  1028 ;;  valf2           4   65[BANK0 ] float 
  1029 ;;  valf1           4   61[BANK0 ] float 
  1030 ;;  ancha           1    0        unsigned char 
  1031 ;; Return value:  Size  Location     Type
  1032 ;;                  1    wreg      void 
  1033 ;; Registers used:
  1034 ;;		wreg, fsr0l, fsr0h, status,2, status,0, btemp+1, pclath, cstack
  1035 ;; Tracked objects:
  1036 ;;		On entry : B00/0
  1037 ;;		On exit  : 0/0
  1038 ;;		Unchanged: 0/0
  1039 ;; Data sizes:     COMMON   BANK0   BANK1   BANK3   BANK2
  1040 ;;      Params:         0       0       0       0       0
  1041 ;;      Locals:         0       9       0       0       0
  1042 ;;      Temps:          0       4       0       0       0
  1043 ;;      Totals:         0      13       0       0       0
  1044 ;;Total ram usage:       13 bytes
  1045 ;; Hardware stack levels required when called:    5
  1046 ;; This function calls:
  1047 ;;		_UART_Data_Ready
  1048 ;;		_UART_Read
  1049 ;;		_UART_Write
  1050 ;;		___fldiv
  1051 ;;		___xxtofl
  1052 ;;		_cntdisp
  1053 ;;		_dispval1
  1054 ;;		_dispval2
  1055 ;;		_initADC
  1056 ;;		_lcd_cursor_set
  1057 ;;		_lcd_start
  1058 ;;		_lcd_wstring
  1059 ;;		_usart_setup
  1060 ;; This function is called by:
  1061 ;;		Startup code after reset
  1062 ;; This function uses a non-reentrant model
  1063 ;;
  1064                           
  1065                           
  1066                           ;psect for function _main
  1067  0B48                     _main:	
  1068  0B48                     l4329:	
  1069                           ;incstack = 0
  1070                           ; Regs used in _main: [wreg-fsr0h+status,2+status,0+btemp+1+pclath+cstack]
  1071                           
  1072                           
  1073                           ;LabLCDisp.c: 108:     TRISB = 0b100001;
  1074  0B48  3021               	movlw	33
  1075  0B49  1683               	bsf	3,5	;RP0=1, select bank1
  1076  0B4A  1303               	bcf	3,6	;RP1=0, select bank1
  1077  0B4B  0086               	movwf	6	;volatile
  1078  0B4C                     l4331:	
  1079                           
  1080                           ;LabLCDisp.c: 109:     ANSEL = 0;
  1081  0B4C  1683               	bsf	3,5	;RP0=1, select bank3
  1082  0B4D  1703               	bsf	3,6	;RP1=1, select bank3
  1083  0B4E  0188               	clrf	8	;volatile
  1084  0B4F                     l4333:	
  1085                           
  1086                           ;LabLCDisp.c: 110:     ANSELH = 0b0010100;
  1087  0B4F  3014               	movlw	20
  1088  0B50  0089               	movwf	9	;volatile
  1089                           
  1090                           ;LabLCDisp.c: 111:     TRISA = 0;
  1091  0B51  1683               	bsf	3,5	;RP0=1, select bank1
  1092  0B52  1303               	bcf	3,6	;RP1=0, select bank1
  1093  0B53  0185               	clrf	5	;volatile
  1094                           
  1095                           ;LabLCDisp.c: 112:     TRISD = 0;
  1096  0B54  0188               	clrf	8	;volatile
  1097  0B55                     l4335:	
  1098                           
  1099                           ;LabLCDisp.c: 113:     ADCON1bits.ADFM = 1;
  1100  0B55  179F               	bsf	31,7	;volatile
  1101  0B56                     l4337:	
  1102                           
  1103                           ;LabLCDisp.c: 114:     ADCON1bits.VCFG0 = 0;
  1104  0B56  121F               	bcf	31,4	;volatile
  1105  0B57                     l4339:	
  1106                           
  1107                           ;LabLCDisp.c: 115:     ADCON1bits.VCFG1 = 0;
  1108  0B57  129F               	bcf	31,5	;volatile
  1109  0B58                     l4341:	
  1110                           
  1111                           ;LabLCDisp.c: 116:     ADCON0 = 0b11000001;
  1112  0B58  30C1               	movlw	193
  1113  0B59  1283               	bcf	3,5	;RP0=0, select bank0
  1114  0B5A  1303               	bcf	3,6	;RP1=0, select bank0
  1115  0B5B  009F               	movwf	31	;volatile
  1116  0B5C                     l4343:	
  1117                           
  1118                           ;LabLCDisp.c: 117:     INTCON = 0b11000000;
  1119  0B5C  30C0               	movlw	192
  1120  0B5D  008B               	movwf	11	;volatile
  1121  0B5E                     l4345:	
  1122                           
  1123                           ;LabLCDisp.c: 118:     float valf1;;LabLCDisp.c: 119:     float valf2;;LabLCDisp.c: 120:
      +                               lcd_start();
  1124  0B5E  120A  158A  201B  120A  158A  	fcall	_lcd_start
  1125  0B63                     l4347:	
  1126  0B63                     l4349:	
  1127                           
  1128                           ;LabLCDisp.c: 122:     initADC(ancha);
  1129  0B63  300D               	movlw	13
  1130  0B64  120A  158A  2198  120A  158A  	fcall	_initADC
  1131  0B69                     l4351:	
  1132                           
  1133                           ;LabLCDisp.c: 123:     usart_setup();
  1134  0B69  160A  118A  2722  120A  158A  	fcall	_usart_setup
  1135  0B6E                     l4353:	
  1136                           
  1137                           ;LabLCDisp.c: 124:     lcd_cursor_set(1,2);
  1138  0B6E  3002               	movlw	2
  1139  0B6F  1283               	bcf	3,5	;RP0=0, select bank0
  1140  0B70  1303               	bcf	3,6	;RP1=0, select bank0
  1141  0B71  00D9               	movwf	??_main
  1142  0B72  0859               	movf	??_main,w
  1143  0B73  00A2               	movwf	lcd_cursor_set@y
  1144  0B74  3001               	movlw	1
  1145  0B75  160A  118A  27B1  120A  158A  	fcall	_lcd_cursor_set
  1146  0B7A                     l4355:	
  1147                           
  1148                           ;LabLCDisp.c: 125:     lcd_wstring("SP1");
  1149  0B7A  3006               	movlw	(low ((STR_1-__stringbase)| (0+32768)))& (0+255)
  1150  0B7B  160A  118A  27D7  120A  158A  	fcall	_lcd_wstring
  1151  0B80                     l4357:	
  1152                           
  1153                           ;LabLCDisp.c: 127:     lcd_cursor_set(1,8);
  1154  0B80  3008               	movlw	8
  1155  0B81  1283               	bcf	3,5	;RP0=0, select bank0
  1156  0B82  1303               	bcf	3,6	;RP1=0, select bank0
  1157  0B83  00D9               	movwf	??_main
  1158  0B84  0859               	movf	??_main,w
  1159  0B85  00A2               	movwf	lcd_cursor_set@y
  1160  0B86  3001               	movlw	1
  1161  0B87  160A  118A  27B1  120A  158A  	fcall	_lcd_cursor_set
  1162  0B8C                     l4359:	
  1163                           
  1164                           ;LabLCDisp.c: 128:     lcd_wstring("SP2");
  1165  0B8C  300A               	movlw	(low ((STR_2-__stringbase)| (0+32768)))& (0+255)
  1166  0B8D  160A  118A  27D7  120A  158A  	fcall	_lcd_wstring
  1167  0B92                     l4361:	
  1168                           
  1169                           ;LabLCDisp.c: 130:     lcd_cursor_set(1,13);
  1170  0B92  300D               	movlw	13
  1171  0B93  1283               	bcf	3,5	;RP0=0, select bank0
  1172  0B94  1303               	bcf	3,6	;RP1=0, select bank0
  1173  0B95  00D9               	movwf	??_main
  1174  0B96  0859               	movf	??_main,w
  1175  0B97  00A2               	movwf	lcd_cursor_set@y
  1176  0B98  3001               	movlw	1
  1177  0B99  160A  118A  27B1  120A  158A  	fcall	_lcd_cursor_set
  1178  0B9E                     l4363:	
  1179                           
  1180                           ;LabLCDisp.c: 131:     lcd_wstring("CONT");
  1181  0B9E  3001               	movlw	(low ((STR_3-__stringbase)| (0+32768)))& (0+255)
  1182  0B9F  160A  118A  27D7  120A  158A  	fcall	_lcd_wstring
  1183  0BA4                     l4365:	
  1184                           
  1185                           ;LabLCDisp.c: 134:         UART_Write(ADCval1);
  1186  0BA4  1283               	bcf	3,5	;RP0=0, select bank0
  1187  0BA5  1303               	bcf	3,6	;RP1=0, select bank0
  1188  0BA6  0867               	movf	_ADCval1,w
  1189  0BA7  160A  118A  26F7  120A  158A  	fcall	_UART_Write
  1190  0BAC                     l4367:	
  1191                           
  1192                           ;LabLCDisp.c: 135:         UART_Write(ADCval2);
  1193  0BAC  1283               	bcf	3,5	;RP0=0, select bank0
  1194  0BAD  1303               	bcf	3,6	;RP1=0, select bank0
  1195  0BAE  0866               	movf	_ADCval2,w
  1196  0BAF  160A  118A  26F7  120A  158A  	fcall	_UART_Write
  1197  0BB4                     l4369:	
  1198                           
  1199                           ;LabLCDisp.c: 136:         valf1 = (ADCval1/51.0f);
  1200  0BB4  3042               	movlw	66
  1201  0BB5  1283               	bcf	3,5	;RP0=0, select bank0
  1202  0BB6  1303               	bcf	3,6	;RP1=0, select bank0
  1203  0BB7  00B1               	movwf	___fldiv@a+3
  1204  0BB8  304C               	movlw	76
  1205  0BB9  00B0               	movwf	___fldiv@a+2
  1206  0BBA  3000               	movlw	0
  1207  0BBB  00AF               	movwf	___fldiv@a+1
  1208  0BBC  3000               	movlw	0
  1209  0BBD  00AE               	movwf	___fldiv@a
  1210  0BBE  0867               	movf	_ADCval1,w
  1211  0BBF  00D9               	movwf	??_main
  1212  0BC0  01DA               	clrf	??_main+1
  1213  0BC1  01DB               	clrf	??_main+2
  1214  0BC2  01DC               	clrf	??_main+3
  1215  0BC3  085C               	movf	??_main+3,w
  1216  0BC4  00A3               	movwf	___xxtofl@val+3
  1217  0BC5  085B               	movf	??_main+2,w
  1218  0BC6  00A2               	movwf	___xxtofl@val+2
  1219  0BC7  085A               	movf	??_main+1,w
  1220  0BC8  00A1               	movwf	___xxtofl@val+1
  1221  0BC9  0859               	movf	??_main,w
  1222  0BCA  00A0               	movwf	___xxtofl@val
  1223  0BCB  3001               	movlw	1
  1224  0BCC  120A  158A  228C  120A  158A  	fcall	___xxtofl
  1225  0BD1  1283               	bcf	3,5	;RP0=0, select bank0
  1226  0BD2  1303               	bcf	3,6	;RP1=0, select bank0
  1227  0BD3  0823               	movf	?___xxtofl+3,w
  1228  0BD4  00B5               	movwf	___fldiv@b+3
  1229  0BD5  0822               	movf	?___xxtofl+2,w
  1230  0BD6  00B4               	movwf	___fldiv@b+2
  1231  0BD7  0821               	movf	?___xxtofl+1,w
  1232  0BD8  00B3               	movwf	___fldiv@b+1
  1233  0BD9  0820               	movf	?___xxtofl,w
  1234  0BDA  00B2               	movwf	___fldiv@b
  1235  0BDB  120A  158A  2623  120A  158A  	fcall	___fldiv
  1236  0BE0  1283               	bcf	3,5	;RP0=0, select bank0
  1237  0BE1  1303               	bcf	3,6	;RP1=0, select bank0
  1238  0BE2  0831               	movf	?___fldiv+3,w
  1239  0BE3  00E0               	movwf	main@valf1+3
  1240  0BE4  0830               	movf	?___fldiv+2,w
  1241  0BE5  00DF               	movwf	main@valf1+2
  1242  0BE6  082F               	movf	?___fldiv+1,w
  1243  0BE7  00DE               	movwf	main@valf1+1
  1244  0BE8  082E               	movf	?___fldiv,w
  1245  0BE9  00DD               	movwf	main@valf1
  1246  0BEA                     l4371:	
  1247                           
  1248                           ;LabLCDisp.c: 137:         valf2 = (ADCval2/51.0f);
  1249  0BEA  3042               	movlw	66
  1250  0BEB  00B1               	movwf	___fldiv@a+3
  1251  0BEC  304C               	movlw	76
  1252  0BED  00B0               	movwf	___fldiv@a+2
  1253  0BEE  3000               	movlw	0
  1254  0BEF  00AF               	movwf	___fldiv@a+1
  1255  0BF0  3000               	movlw	0
  1256  0BF1  00AE               	movwf	___fldiv@a
  1257  0BF2  0866               	movf	_ADCval2,w
  1258  0BF3  00D9               	movwf	??_main
  1259  0BF4  01DA               	clrf	??_main+1
  1260  0BF5  01DB               	clrf	??_main+2
  1261  0BF6  01DC               	clrf	??_main+3
  1262  0BF7  085C               	movf	??_main+3,w
  1263  0BF8  00A3               	movwf	___xxtofl@val+3
  1264  0BF9  085B               	movf	??_main+2,w
  1265  0BFA  00A2               	movwf	___xxtofl@val+2
  1266  0BFB  085A               	movf	??_main+1,w
  1267  0BFC  00A1               	movwf	___xxtofl@val+1
  1268  0BFD  0859               	movf	??_main,w
  1269  0BFE  00A0               	movwf	___xxtofl@val
  1270  0BFF  3001               	movlw	1
  1271  0C00  120A  158A  228C  120A  158A  	fcall	___xxtofl
  1272  0C05  1283               	bcf	3,5	;RP0=0, select bank0
  1273  0C06  1303               	bcf	3,6	;RP1=0, select bank0
  1274  0C07  0823               	movf	?___xxtofl+3,w
  1275  0C08  00B5               	movwf	___fldiv@b+3
  1276  0C09  0822               	movf	?___xxtofl+2,w
  1277  0C0A  00B4               	movwf	___fldiv@b+2
  1278  0C0B  0821               	movf	?___xxtofl+1,w
  1279  0C0C  00B3               	movwf	___fldiv@b+1
  1280  0C0D  0820               	movf	?___xxtofl,w
  1281  0C0E  00B2               	movwf	___fldiv@b
  1282  0C0F  120A  158A  2623  120A  158A  	fcall	___fldiv
  1283  0C14  1283               	bcf	3,5	;RP0=0, select bank0
  1284  0C15  1303               	bcf	3,6	;RP1=0, select bank0
  1285  0C16  0831               	movf	?___fldiv+3,w
  1286  0C17  00E4               	movwf	main@valf2+3
  1287  0C18  0830               	movf	?___fldiv+2,w
  1288  0C19  00E3               	movwf	main@valf2+2
  1289  0C1A  082F               	movf	?___fldiv+1,w
  1290  0C1B  00E2               	movwf	main@valf2+1
  1291  0C1C  082E               	movf	?___fldiv,w
  1292  0C1D  00E1               	movwf	main@valf2
  1293  0C1E                     l4373:	
  1294                           
  1295                           ;LabLCDisp.c: 138:         dispval1(valf1);
  1296  0C1E  0860               	movf	main@valf1+3,w
  1297  0C1F  00CF               	movwf	dispval1@dataf+3
  1298  0C20  085F               	movf	main@valf1+2,w
  1299  0C21  00CE               	movwf	dispval1@dataf+2
  1300  0C22  085E               	movf	main@valf1+1,w
  1301  0C23  00CD               	movwf	dispval1@dataf+1
  1302  0C24  085D               	movf	main@valf1,w
  1303  0C25  00CC               	movwf	dispval1@dataf
  1304  0C26  120A  118A  25B1  120A  158A  	fcall	_dispval1
  1305  0C2B                     l4375:	
  1306                           
  1307                           ;LabLCDisp.c: 139:         dispval2(valf2);
  1308  0C2B  1283               	bcf	3,5	;RP0=0, select bank0
  1309  0C2C  1303               	bcf	3,6	;RP1=0, select bank0
  1310  0C2D  0864               	movf	main@valf2+3,w
  1311  0C2E  00CF               	movwf	dispval2@dataf+3
  1312  0C2F  0863               	movf	main@valf2+2,w
  1313  0C30  00CE               	movwf	dispval2@dataf+2
  1314  0C31  0862               	movf	main@valf2+1,w
  1315  0C32  00CD               	movwf	dispval2@dataf+1
  1316  0C33  0861               	movf	main@valf2,w
  1317  0C34  00CC               	movwf	dispval2@dataf
  1318  0C35  120A  118A  2381  120A  158A  	fcall	_dispval2
  1319  0C3A                     l4377:	
  1320                           
  1321                           ;LabLCDisp.c: 140:         if (UART_Data_Ready()){
  1322  0C3A  120A  118A  27F6  120A  158A  	fcall	_UART_Data_Ready
  1323  0C3F  3A00               	xorlw	0
  1324  0C40  1903               	skipnz
  1325  0C41  2C43               	goto	u3461
  1326  0C42  2C44               	goto	u3460
  1327  0C43                     u3461:	
  1328  0C43  2C50               	goto	l182
  1329  0C44                     u3460:	
  1330  0C44                     l4379:	
  1331                           
  1332                           ;LabLCDisp.c: 141:            recived = UART_Read();
  1333  0C44  120A  158A  200A  120A  158A  	fcall	_UART_Read
  1334  0C49  1283               	bcf	3,5	;RP0=0, select bank0
  1335  0C4A  1303               	bcf	3,6	;RP1=0, select bank0
  1336  0C4B  00D9               	movwf	??_main
  1337  0C4C  0859               	movf	??_main,w
  1338  0C4D  00E5               	movwf	_recived
  1339  0C4E                     l4381:	
  1340                           
  1341                           ;LabLCDisp.c: 142:            RCSTAbits.CREN = 1;
  1342  0C4E  1618               	bsf	24,4	;volatile
  1343                           
  1344                           ;LabLCDisp.c: 143:         }
  1345  0C4F  2C51               	goto	l4383
  1346  0C50                     l182:	
  1347                           ;LabLCDisp.c: 144:         else{
  1348                           
  1349  0C50  0000               	nop	;# 
  1350  0C51                     l4383:	
  1351                           
  1352                           ;LabLCDisp.c: 147:         if (recived == 0x2B){
  1353  0C51  302B               	movlw	43
  1354  0C52  1283               	bcf	3,5	;RP0=0, select bank0
  1355  0C53  1303               	bcf	3,6	;RP1=0, select bank0
  1356  0C54  0665               	xorwf	_recived,w
  1357  0C55  1D03               	btfss	3,2
  1358  0C56  2C58               	goto	u3471
  1359  0C57  2C59               	goto	u3470
  1360  0C58                     u3471:	
  1361  0C58  2C67               	goto	l4391
  1362  0C59                     u3470:	
  1363  0C59                     l4385:	
  1364                           
  1365                           ;LabLCDisp.c: 148:             contador++;
  1366  0C59  3001               	movlw	1
  1367  0C5A  00D9               	movwf	??_main
  1368  0C5B  0859               	movf	??_main,w
  1369  0C5C  07E8               	addwf	_contador,f
  1370  0C5D                     l4387:	
  1371                           
  1372                           ;LabLCDisp.c: 149:             cntdisp(contador);
  1373  0C5D  0868               	movf	_contador,w
  1374  0C5E  120A  158A  247B  120A  158A  	fcall	_cntdisp
  1375  0C63                     l4389:	
  1376                           
  1377                           ;LabLCDisp.c: 150:             recived = 0;
  1378  0C63  1283               	bcf	3,5	;RP0=0, select bank0
  1379  0C64  1303               	bcf	3,6	;RP1=0, select bank0
  1380  0C65  01E5               	clrf	_recived
  1381                           
  1382                           ;LabLCDisp.c: 151:         }
  1383  0C66  2BA4               	goto	l4365
  1384  0C67                     l4391:	
  1385  0C67  302D               	movlw	45
  1386  0C68  0665               	xorwf	_recived,w
  1387  0C69  1D03               	btfss	3,2
  1388  0C6A  2C6C               	goto	u3481
  1389  0C6B  2C6D               	goto	u3480
  1390  0C6C                     u3481:	
  1391  0C6C  2C76               	goto	l186
  1392  0C6D                     u3480:	
  1393  0C6D                     l4393:	
  1394                           
  1395                           ;LabLCDisp.c: 153:             contador--;
  1396  0C6D  3001               	movlw	1
  1397  0C6E  02E8               	subwf	_contador,f
  1398  0C6F                     l4395:	
  1399                           
  1400                           ;LabLCDisp.c: 154:             cntdisp(contador);
  1401  0C6F  0868               	movf	_contador,w
  1402  0C70  120A  158A  247B  120A  158A  	fcall	_cntdisp
  1403  0C75  2C63               	goto	l4389
  1404  0C76                     l186:	
  1405                           ;LabLCDisp.c: 157:         else{
  1406                           
  1407  0C76  0000               	nop	;# 
  1408  0C77  2BA4               	goto	l4365
  1409  0C78  120A  118A  280E   	ljmp	start
  1410  0C7B                     __end_of_main:	
  1411                           
  1412                           	psect	text1
  1413  1722                     __ptext1:	
  1414 ;; *************** function _usart_setup *****************
  1415 ;; Defined at:
  1416 ;;		line 12 in file "usartlib.c"
  1417 ;; Parameters:    Size  Location     Type
  1418 ;;		None
  1419 ;; Auto vars:     Size  Location     Type
  1420 ;;		None
  1421 ;; Return value:  Size  Location     Type
  1422 ;;                  1    wreg      void 
  1423 ;; Registers used:
  1424 ;;		wreg
  1425 ;; Tracked objects:
  1426 ;;		On entry : 0/0
  1427 ;;		On exit  : 0/0
  1428 ;;		Unchanged: 0/0
  1429 ;; Data sizes:     COMMON   BANK0   BANK1   BANK3   BANK2
  1430 ;;      Params:         0       0       0       0       0
  1431 ;;      Locals:         0       0       0       0       0
  1432 ;;      Temps:          0       0       0       0       0
  1433 ;;      Totals:         0       0       0       0       0
  1434 ;;Total ram usage:        0 bytes
  1435 ;; Hardware stack levels used:    1
  1436 ;; Hardware stack levels required when called:    1
  1437 ;; This function calls:
  1438 ;;		Nothing
  1439 ;; This function is called by:
  1440 ;;		_main
  1441 ;; This function uses a non-reentrant model
  1442 ;;
  1443                           
  1444                           
  1445                           ;psect for function _usart_setup
  1446  1722                     _usart_setup:	
  1447  1722                     l2669:	
  1448                           ;incstack = 0
  1449                           ; Regs used in _usart_setup: [wreg]
  1450                           
  1451                           
  1452                           ;usartlib.c: 14:     SPBRG = 25 ;
  1453  1722  3019               	movlw	25
  1454  1723  1683               	bsf	3,5	;RP0=1, select bank1
  1455  1724  1303               	bcf	3,6	;RP1=0, select bank1
  1456  1725  0099               	movwf	25	;volatile
  1457  1726                     l2671:	
  1458                           
  1459                           ;usartlib.c: 16:     BAUDCTLbits.SCKP = 0;
  1460  1726  1683               	bsf	3,5	;RP0=1, select bank3
  1461  1727  1703               	bsf	3,6	;RP1=1, select bank3
  1462  1728  1207               	bcf	7,4	;volatile
  1463  1729                     l2673:	
  1464                           
  1465                           ;usartlib.c: 17:     BAUDCTLbits.BRG16 = 0;
  1466  1729  1187               	bcf	7,3	;volatile
  1467  172A                     l2675:	
  1468                           
  1469                           ;usartlib.c: 18:     BAUDCTLbits.ABDEN = 0;
  1470  172A  1007               	bcf	7,0	;volatile
  1471  172B                     l2677:	
  1472                           
  1473                           ;usartlib.c: 20:     TXSTAbits.TX9 = 0;
  1474  172B  1683               	bsf	3,5	;RP0=1, select bank1
  1475  172C  1303               	bcf	3,6	;RP1=0, select bank1
  1476  172D  1318               	bcf	24,6	;volatile
  1477  172E                     l2679:	
  1478                           
  1479                           ;usartlib.c: 27:     RCSTAbits.SPEN = 1;
  1480  172E  1283               	bcf	3,5	;RP0=0, select bank0
  1481  172F  1303               	bcf	3,6	;RP1=0, select bank0
  1482  1730  1798               	bsf	24,7	;volatile
  1483  1731                     l2681:	
  1484                           
  1485                           ;usartlib.c: 28:     RCSTAbits.RX9 = 0;
  1486  1731  1318               	bcf	24,6	;volatile
  1487  1732                     l2683:	
  1488                           
  1489                           ;usartlib.c: 29:     RCSTAbits.CREN = 1;
  1490  1732  1618               	bsf	24,4	;volatile
  1491  1733                     l2685:	
  1492                           
  1493                           ;usartlib.c: 31:     TXSTAbits.BRGH = 1;
  1494  1733  1683               	bsf	3,5	;RP0=1, select bank1
  1495  1734  1303               	bcf	3,6	;RP1=0, select bank1
  1496  1735  1518               	bsf	24,2	;volatile
  1497  1736                     l2687:	
  1498                           
  1499                           ;usartlib.c: 32:     SYNC = 0;
  1500  1736  1218               	bcf	24,4	;volatile
  1501  1737                     l2689:	
  1502                           
  1503                           ;usartlib.c: 33:     SPEN = 1;
  1504  1737  1283               	bcf	3,5	;RP0=0, select bank0
  1505  1738  1303               	bcf	3,6	;RP1=0, select bank0
  1506  1739  1798               	bsf	24,7	;volatile
  1507  173A                     l2691:	
  1508                           
  1509                           ;usartlib.c: 34:     TRISC7 = 1;
  1510  173A  1683               	bsf	3,5	;RP0=1, select bank1
  1511  173B  1303               	bcf	3,6	;RP1=0, select bank1
  1512  173C  1787               	bsf	7,7	;volatile
  1513  173D                     l2693:	
  1514                           
  1515                           ;usartlib.c: 35:     TRISC6 = 1;
  1516  173D  1707               	bsf	7,6	;volatile
  1517  173E                     l2695:	
  1518                           
  1519                           ;usartlib.c: 36:     CREN = 1;
  1520  173E  1283               	bcf	3,5	;RP0=0, select bank0
  1521  173F  1303               	bcf	3,6	;RP1=0, select bank0
  1522  1740  1618               	bsf	24,4	;volatile
  1523  1741                     l2697:	
  1524                           
  1525                           ;usartlib.c: 37:     TXEN = 1;
  1526  1741  1683               	bsf	3,5	;RP0=1, select bank1
  1527  1742  1303               	bcf	3,6	;RP1=0, select bank1
  1528  1743  1698               	bsf	24,5	;volatile
  1529  1744                     l338:	
  1530  1744  0008               	return
  1531  1745                     __end_of_usart_setup:	
  1532                           
  1533                           	psect	text2
  1534  081B                     __ptext2:	
  1535 ;; *************** function _lcd_start *****************
  1536 ;; Defined at:
  1537 ;;		line 109 in file "LCDISPLIBLB3.c"
  1538 ;; Parameters:    Size  Location     Type
  1539 ;;		None
  1540 ;; Auto vars:     Size  Location     Type
  1541 ;;		None
  1542 ;; Return value:  Size  Location     Type
  1543 ;;                  1    wreg      void 
  1544 ;; Registers used:
  1545 ;;		wreg, status,2, status,0, pclath, cstack
  1546 ;; Tracked objects:
  1547 ;;		On entry : 0/0
  1548 ;;		On exit  : 0/0
  1549 ;;		Unchanged: 0/0
  1550 ;; Data sizes:     COMMON   BANK0   BANK1   BANK3   BANK2
  1551 ;;      Params:         0       0       0       0       0
  1552 ;;      Locals:         0       0       0       0       0
  1553 ;;      Temps:          0       2       0       0       0
  1554 ;;      Totals:         0       2       0       0       0
  1555 ;;Total ram usage:        2 bytes
  1556 ;; Hardware stack levels used:    1
  1557 ;; Hardware stack levels required when called:    3
  1558 ;; This function calls:
  1559 ;;		_lcd_inst
  1560 ;;		_lcd_stinst1
  1561 ;;		_lcd_stinst5
  1562 ;; This function is called by:
  1563 ;;		_main
  1564 ;; This function uses a non-reentrant model
  1565 ;;
  1566                           
  1567                           
  1568                           ;psect for function _lcd_start
  1569  081B                     _lcd_start:	
  1570  081B                     l3879:	
  1571                           ;incstack = 0
  1572                           ; Regs used in _lcd_start: [wreg+status,2+status,0+pclath+cstack]
  1573                           
  1574                           
  1575                           ;LCDISPLIBLB3.c: 110:     _delay((unsigned long)((15)*(4000000/4000.0)));
  1576  081B  3014               	movlw	20
  1577  081C  1283               	bcf	3,5	;RP0=0, select bank0
  1578  081D  1303               	bcf	3,6	;RP1=0, select bank0
  1579  081E  00A3               	movwf	??_lcd_start+1
  1580  081F  3079               	movlw	121
  1581  0820  00A2               	movwf	??_lcd_start
  1582  0821                     u3497:	
  1583  0821  0BA2               	decfsz	??_lcd_start,f
  1584  0822  2821               	goto	u3497
  1585  0823  0BA3               	decfsz	??_lcd_start+1,f
  1586  0824  2821               	goto	u3497
  1587  0825                     l3881:	
  1588                           
  1589                           ;LCDISPLIBLB3.c: 111:     lcd_stinst5(0x030);
  1590  0825  3030               	movlw	48
  1591  0826  160A  118A  278D  120A  158A  	fcall	_lcd_stinst5
  1592  082B                     l3883:	
  1593                           
  1594                           ;LCDISPLIBLB3.c: 112:     lcd_stinst1(0x030);
  1595  082B  3030               	movlw	48
  1596  082C  160A  118A  2703  120A  158A  	fcall	_lcd_stinst1
  1597  0831                     l3885:	
  1598                           
  1599                           ;LCDISPLIBLB3.c: 113:     lcd_stinst1(0x030);
  1600  0831  3030               	movlw	48
  1601  0832  160A  118A  2703  120A  158A  	fcall	_lcd_stinst1
  1602  0837                     l3887:	
  1603                           
  1604                           ;LCDISPLIBLB3.c: 115:     lcd_stinst5(0x38);
  1605  0837  3038               	movlw	56
  1606  0838  160A  118A  278D  120A  158A  	fcall	_lcd_stinst5
  1607  083D                     l3889:	
  1608                           
  1609                           ;LCDISPLIBLB3.c: 116:     lcd_inst(0x10);
  1610  083D  3010               	movlw	16
  1611  083E  160A  118A  2745  120A  158A  	fcall	_lcd_inst
  1612  0843                     l3891:	
  1613                           
  1614                           ;LCDISPLIBLB3.c: 117:     lcd_inst(0x01);
  1615  0843  3001               	movlw	1
  1616  0844  160A  118A  2745  120A  158A  	fcall	_lcd_inst
  1617  0849                     l3893:	
  1618                           
  1619                           ;LCDISPLIBLB3.c: 118:     lcd_inst(0x06);
  1620  0849  3006               	movlw	6
  1621  084A  160A  118A  2745  120A  158A  	fcall	_lcd_inst
  1622  084F                     l3895:	
  1623                           
  1624                           ;LCDISPLIBLB3.c: 119:     lcd_inst(0x0C);
  1625  084F  300C               	movlw	12
  1626  0850  160A  118A  2745  120A  158A  	fcall	_lcd_inst
  1627  0855                     l56:	
  1628  0855  0008               	return
  1629  0856                     __end_of_lcd_start:	
  1630                           
  1631                           	psect	text3
  1632  178D                     __ptext3:	
  1633 ;; *************** function _lcd_stinst5 *****************
  1634 ;; Defined at:
  1635 ;;		line 81 in file "LCDISPLIBLB3.c"
  1636 ;; Parameters:    Size  Location     Type
  1637 ;;  iord            1    wreg     unsigned char 
  1638 ;; Auto vars:     Size  Location     Type
  1639 ;;  iord            1    6[COMMON] unsigned char 
  1640 ;; Return value:  Size  Location     Type
  1641 ;;                  1    wreg      void 
  1642 ;; Registers used:
  1643 ;;		wreg, status,2, status,0, pclath, cstack
  1644 ;; Tracked objects:
  1645 ;;		On entry : 0/0
  1646 ;;		On exit  : 0/0
  1647 ;;		Unchanged: 0/0
  1648 ;; Data sizes:     COMMON   BANK0   BANK1   BANK3   BANK2
  1649 ;;      Params:         0       0       0       0       0
  1650 ;;      Locals:         1       0       0       0       0
  1651 ;;      Temps:          0       2       0       0       0
  1652 ;;      Totals:         1       2       0       0       0
  1653 ;;Total ram usage:        3 bytes
  1654 ;; Hardware stack levels used:    1
  1655 ;; Hardware stack levels required when called:    2
  1656 ;; This function calls:
  1657 ;;		_lcd_databits
  1658 ;; This function is called by:
  1659 ;;		_lcd_start
  1660 ;; This function uses a non-reentrant model
  1661 ;;
  1662                           
  1663                           
  1664                           ;psect for function _lcd_stinst5
  1665  178D                     _lcd_stinst5:	
  1666                           
  1667                           ;incstack = 0
  1668                           ; Regs used in _lcd_stinst5: [wreg+status,2+status,0+pclath+cstack]
  1669                           ;lcd_stinst5@iord stored from wreg
  1670  178D  00F6               	movwf	lcd_stinst5@iord
  1671  178E                     l3613:	
  1672                           
  1673                           ;LCDISPLIBLB3.c: 82:  RD1 = 0;
  1674  178E  1283               	bcf	3,5	;RP0=0, select bank0
  1675  178F  1303               	bcf	3,6	;RP1=0, select bank0
  1676  1790  1088               	bcf	8,1	;volatile
  1677  1791                     l3615:	
  1678                           
  1679                           ;LCDISPLIBLB3.c: 83:  lcd_databits(iord);
  1680  1791  0876               	movf	lcd_stinst5@iord,w
  1681  1792  120A  158A  2056  160A  118A  	fcall	_lcd_databits
  1682  1797                     l3617:	
  1683                           
  1684                           ;LCDISPLIBLB3.c: 84:  RD0 = 1;
  1685  1797  1283               	bcf	3,5	;RP0=0, select bank0
  1686  1798  1303               	bcf	3,6	;RP1=0, select bank0
  1687  1799  1408               	bsf	8,0	;volatile
  1688  179A                     l3619:	
  1689                           
  1690                           ;LCDISPLIBLB3.c: 85:     _delay((unsigned long)((5)*(4000000/4000.0)));
  1691  179A  3007               	movlw	7
  1692  179B  1283               	bcf	3,5	;RP0=0, select bank0
  1693  179C  1303               	bcf	3,6	;RP1=0, select bank0
  1694  179D  00A1               	movwf	??_lcd_stinst5+1
  1695  179E  307C               	movlw	124
  1696  179F  00A0               	movwf	??_lcd_stinst5
  1697  17A0                     u3507:	
  1698  17A0  0BA0               	decfsz	??_lcd_stinst5,f
  1699  17A1  2FA0               	goto	u3507
  1700  17A2  0BA1               	decfsz	??_lcd_stinst5+1,f
  1701  17A3  2FA0               	goto	u3507
  1702  17A4  0000               	nop
  1703  17A5                     l3621:	
  1704                           
  1705                           ;LCDISPLIBLB3.c: 86:     RD0 = 0;
  1706  17A5  1283               	bcf	3,5	;RP0=0, select bank0
  1707  17A6  1303               	bcf	3,6	;RP1=0, select bank0
  1708  17A7  1008               	bcf	8,0	;volatile
  1709  17A8                     l3623:	
  1710                           
  1711                           ;LCDISPLIBLB3.c: 87:     _delay((unsigned long)((1)*(4000000/4000.0)));
  1712  17A8  30C7               	movlw	199
  1713  17A9  1283               	bcf	3,5	;RP0=0, select bank0
  1714  17AA  1303               	bcf	3,6	;RP1=0, select bank0
  1715  17AB  00A0               	movwf	??_lcd_stinst5
  1716  17AC                     u3517:	
  1717  17AC  2FAD               	nop2
  1718  17AD  0BA0               	decfsz	??_lcd_stinst5,f
  1719  17AE  2FAC               	goto	u3517
  1720  17AF  2FB0               	nop2
  1721  17B0                     l47:	
  1722  17B0  0008               	return
  1723  17B1                     __end_of_lcd_stinst5:	
  1724                           
  1725                           	psect	text4
  1726  1703                     __ptext4:	
  1727 ;; *************** function _lcd_stinst1 *****************
  1728 ;; Defined at:
  1729 ;;		line 90 in file "LCDISPLIBLB3.c"
  1730 ;; Parameters:    Size  Location     Type
  1731 ;;  iord            1    wreg     unsigned char 
  1732 ;; Auto vars:     Size  Location     Type
  1733 ;;  iord            1    0[BANK0 ] unsigned char 
  1734 ;; Return value:  Size  Location     Type
  1735 ;;                  1    wreg      void 
  1736 ;; Registers used:
  1737 ;;		wreg, status,2, status,0, pclath, cstack
  1738 ;; Tracked objects:
  1739 ;;		On entry : 0/0
  1740 ;;		On exit  : 0/0
  1741 ;;		Unchanged: 0/0
  1742 ;; Data sizes:     COMMON   BANK0   BANK1   BANK3   BANK2
  1743 ;;      Params:         0       0       0       0       0
  1744 ;;      Locals:         0       1       0       0       0
  1745 ;;      Temps:          1       0       0       0       0
  1746 ;;      Totals:         1       1       0       0       0
  1747 ;;Total ram usage:        2 bytes
  1748 ;; Hardware stack levels used:    1
  1749 ;; Hardware stack levels required when called:    2
  1750 ;; This function calls:
  1751 ;;		_lcd_databits
  1752 ;; This function is called by:
  1753 ;;		_lcd_start
  1754 ;; This function uses a non-reentrant model
  1755 ;;
  1756                           
  1757                           
  1758                           ;psect for function _lcd_stinst1
  1759  1703                     _lcd_stinst1:	
  1760                           
  1761                           ;incstack = 0
  1762                           ; Regs used in _lcd_stinst1: [wreg+status,2+status,0+pclath+cstack]
  1763                           ;lcd_stinst1@iord stored from wreg
  1764  1703  1283               	bcf	3,5	;RP0=0, select bank0
  1765  1704  1303               	bcf	3,6	;RP1=0, select bank0
  1766  1705  00A0               	movwf	lcd_stinst1@iord
  1767  1706                     l3625:	
  1768                           
  1769                           ;LCDISPLIBLB3.c: 91:  RD1 = 0;
  1770  1706  1088               	bcf	8,1	;volatile
  1771  1707                     l3627:	
  1772                           
  1773                           ;LCDISPLIBLB3.c: 92:  lcd_databits(iord);
  1774  1707  0820               	movf	lcd_stinst1@iord,w
  1775  1708  120A  158A  2056  160A  118A  	fcall	_lcd_databits
  1776  170D                     l3629:	
  1777                           
  1778                           ;LCDISPLIBLB3.c: 93:  RD0 = 1;
  1779  170D  1283               	bcf	3,5	;RP0=0, select bank0
  1780  170E  1303               	bcf	3,6	;RP1=0, select bank0
  1781  170F  1408               	bsf	8,0	;volatile
  1782  1710                     l3631:	
  1783                           
  1784                           ;LCDISPLIBLB3.c: 94:     _delay((unsigned long)((1)*(4000000/4000.0)));
  1785  1710  30C7               	movlw	199
  1786  1711  00F6               	movwf	??_lcd_stinst1
  1787  1712                     u3527:	
  1788  1712  2F13               	nop2
  1789  1713  0BF6               	decfsz	??_lcd_stinst1,f
  1790  1714  2F12               	goto	u3527
  1791  1715  2F16               	nop2
  1792  1716  2F17               	nop2
  1793  1717                     l3633:	
  1794                           
  1795                           ;LCDISPLIBLB3.c: 95:     RD0 = 0;
  1796  1717  1283               	bcf	3,5	;RP0=0, select bank0
  1797  1718  1303               	bcf	3,6	;RP1=0, select bank0
  1798  1719  1008               	bcf	8,0	;volatile
  1799  171A                     l3635:	
  1800                           
  1801                           ;LCDISPLIBLB3.c: 96:     _delay((unsigned long)((1)*(4000000/4000.0)));
  1802  171A  30C7               	movlw	199
  1803  171B  00F6               	movwf	??_lcd_stinst1
  1804  171C                     u3537:	
  1805  171C  2F1D               	nop2
  1806  171D  0BF6               	decfsz	??_lcd_stinst1,f
  1807  171E  2F1C               	goto	u3537
  1808  171F  2F20               	nop2
  1809  1720  2F21               	nop2
  1810  1721                     l50:	
  1811  1721  0008               	return
  1812  1722                     __end_of_lcd_stinst1:	
  1813                           
  1814                           	psect	text5
  1815  0998                     __ptext5:	
  1816 ;; *************** function _initADC *****************
  1817 ;; Defined at:
  1818 ;;		line 12 in file "adclib.c"
  1819 ;; Parameters:    Size  Location     Type
  1820 ;;  var1            1    wreg     unsigned char 
  1821 ;; Auto vars:     Size  Location     Type
  1822 ;;  var1            1    0[BANK0 ] unsigned char 
  1823 ;; Return value:  Size  Location     Type
  1824 ;;                  1    wreg      void 
  1825 ;; Registers used:
  1826 ;;		wreg, fsr0l, fsr0h, status,2, status,0
  1827 ;; Tracked objects:
  1828 ;;		On entry : 0/0
  1829 ;;		On exit  : 0/0
  1830 ;;		Unchanged: 0/0
  1831 ;; Data sizes:     COMMON   BANK0   BANK1   BANK3   BANK2
  1832 ;;      Params:         0       0       0       0       0
  1833 ;;      Locals:         0       1       0       0       0
  1834 ;;      Temps:          2       0       0       0       0
  1835 ;;      Totals:         2       1       0       0       0
  1836 ;;Total ram usage:        3 bytes
  1837 ;; Hardware stack levels used:    1
  1838 ;; Hardware stack levels required when called:    1
  1839 ;; This function calls:
  1840 ;;		Nothing
  1841 ;; This function is called by:
  1842 ;;		_main
  1843 ;; This function uses a non-reentrant model
  1844 ;;
  1845                           
  1846                           
  1847                           ;psect for function _initADC
  1848  0998                     _initADC:	
  1849                           
  1850                           ;incstack = 0
  1851                           ; Regs used in _initADC: [wreg-fsr0h+status,2+status,0]
  1852                           ;initADC@var1 stored from wreg
  1853  0998  1283               	bcf	3,5	;RP0=0, select bank0
  1854  0999  1303               	bcf	3,6	;RP1=0, select bank0
  1855  099A  00A0               	movwf	initADC@var1
  1856  099B                     l3897:	
  1857                           
  1858                           ;adclib.c: 13:     ADCON1 = 0b00000000;
  1859  099B  1683               	bsf	3,5	;RP0=1, select bank1
  1860  099C  1303               	bcf	3,6	;RP1=0, select bank1
  1861  099D  019F               	clrf	31	;volatile
  1862                           
  1863                           ;adclib.c: 14:     switch (var1){
  1864  099E  29CF               	goto	l3933
  1865  099F                     l3899:	
  1866                           
  1867                           ;adclib.c: 16:             ADCON0 = 0b11000001;
  1868  099F  30C1               	movlw	193
  1869  09A0  009F               	movwf	31	;volatile
  1870                           
  1871                           ;adclib.c: 17:             break;
  1872  09A1  2A08               	goto	l89
  1873  09A2                     l3901:	
  1874                           
  1875                           ;adclib.c: 19:             ADCON0 = 0b11000101;
  1876  09A2  30C5               	movlw	197
  1877  09A3  009F               	movwf	31	;volatile
  1878                           
  1879                           ;adclib.c: 20:             break;
  1880  09A4  2A08               	goto	l89
  1881  09A5                     l3903:	
  1882                           
  1883                           ;adclib.c: 22:             ADCON0 = 0b11001001;
  1884  09A5  30C9               	movlw	201
  1885  09A6  009F               	movwf	31	;volatile
  1886                           
  1887                           ;adclib.c: 23:             break;
  1888  09A7  2A08               	goto	l89
  1889  09A8                     l3905:	
  1890                           
  1891                           ;adclib.c: 25:             ADCON0 = 0b11001101;
  1892  09A8  30CD               	movlw	205
  1893  09A9  009F               	movwf	31	;volatile
  1894                           
  1895                           ;adclib.c: 26:             break;
  1896  09AA  2A08               	goto	l89
  1897  09AB                     l3907:	
  1898                           
  1899                           ;adclib.c: 28:             ADCON0 = 0b11010001;
  1900  09AB  30D1               	movlw	209
  1901  09AC  009F               	movwf	31	;volatile
  1902                           
  1903                           ;adclib.c: 29:             break;
  1904  09AD  2A08               	goto	l89
  1905  09AE                     l3909:	
  1906                           
  1907                           ;adclib.c: 31:             ADCON0 = 0b11010101;
  1908  09AE  30D5               	movlw	213
  1909  09AF  009F               	movwf	31	;volatile
  1910                           
  1911                           ;adclib.c: 32:             break;
  1912  09B0  2A08               	goto	l89
  1913  09B1                     l3911:	
  1914                           
  1915                           ;adclib.c: 34:             ADCON0 = 0b11011001;
  1916  09B1  30D9               	movlw	217
  1917  09B2  009F               	movwf	31	;volatile
  1918                           
  1919                           ;adclib.c: 35:             break;
  1920  09B3  2A08               	goto	l89
  1921  09B4                     l3913:	
  1922                           
  1923                           ;adclib.c: 37:             ADCON0 = 0b11011101;
  1924  09B4  30DD               	movlw	221
  1925  09B5  009F               	movwf	31	;volatile
  1926                           
  1927                           ;adclib.c: 38:             break;
  1928  09B6  2A08               	goto	l89
  1929  09B7                     l3915:	
  1930                           
  1931                           ;adclib.c: 40:             ADCON0 = 0b11100001;
  1932  09B7  30E1               	movlw	225
  1933  09B8  009F               	movwf	31	;volatile
  1934                           
  1935                           ;adclib.c: 41:             break;
  1936  09B9  2A08               	goto	l89
  1937  09BA                     l3917:	
  1938                           
  1939                           ;adclib.c: 43:             ADCON0 = 0b11100101;
  1940  09BA  30E5               	movlw	229
  1941  09BB  009F               	movwf	31	;volatile
  1942                           
  1943                           ;adclib.c: 44:             break;
  1944  09BC  2A08               	goto	l89
  1945  09BD                     l3919:	
  1946                           
  1947                           ;adclib.c: 46:             ADCON0 = 0b11101001;
  1948  09BD  30E9               	movlw	233
  1949  09BE  009F               	movwf	31	;volatile
  1950                           
  1951                           ;adclib.c: 47:             break;
  1952  09BF  2A08               	goto	l89
  1953  09C0                     l3921:	
  1954                           
  1955                           ;adclib.c: 49:             ADCON0 = 0b11101101;
  1956  09C0  30ED               	movlw	237
  1957  09C1  009F               	movwf	31	;volatile
  1958                           
  1959                           ;adclib.c: 50:             break;
  1960  09C2  2A08               	goto	l89
  1961  09C3                     l3923:	
  1962                           
  1963                           ;adclib.c: 52:             ADCON0 = 0b11110001;
  1964  09C3  30F1               	movlw	241
  1965  09C4  009F               	movwf	31	;volatile
  1966                           
  1967                           ;adclib.c: 53:             break;
  1968  09C5  2A08               	goto	l89
  1969  09C6                     l3925:	
  1970                           
  1971                           ;adclib.c: 55:             ADCON0 = 0b11110101;
  1972  09C6  30F5               	movlw	245
  1973  09C7  009F               	movwf	31	;volatile
  1974                           
  1975                           ;adclib.c: 56:             break;
  1976  09C8  2A08               	goto	l89
  1977  09C9                     l3927:	
  1978                           
  1979                           ;adclib.c: 58:             ADCON0 = 0b11111001;
  1980  09C9  30F9               	movlw	249
  1981  09CA  009F               	movwf	31	;volatile
  1982                           
  1983                           ;adclib.c: 59:             break;
  1984  09CB  2A08               	goto	l89
  1985  09CC                     l3929:	
  1986                           
  1987                           ;adclib.c: 61:             ADCON0 = 0b11111101;
  1988  09CC  30FD               	movlw	253
  1989  09CD  009F               	movwf	31	;volatile
  1990                           
  1991                           ;adclib.c: 62:             break;
  1992  09CE  2A08               	goto	l89
  1993  09CF                     l3933:	
  1994  09CF  1283               	bcf	3,5	;RP0=0, select bank0
  1995  09D0  1303               	bcf	3,6	;RP1=0, select bank0
  1996  09D1  0820               	movf	initADC@var1,w
  1997  09D2  00F5               	movwf	??_initADC
  1998  09D3  01F6               	clrf	??_initADC+1
  1999                           
  2000                           ; Switch on 2 bytes has been partitioned into a top level switch of size 1, and 1 sub-sw
      +                          itches
  2001                           ; Switch size 1, requested type "simple"
  2002                           ; Number of cases is 1, Range of values is 0 to 0
  2003                           ; switch strategies available:
  2004                           ; Name         Instructions Cycles
  2005                           ; simple_byte            4     3 (average)
  2006                           ; direct_byte           11     8 (fixed)
  2007                           ; jumptable            260     6 (fixed)
  2008                           ;	Chosen strategy is simple_byte
  2009  09D4  0876               	movf	??_initADC+1,w
  2010  09D5  3A00               	xorlw	0	; case 0
  2011  09D6  1903               	skipnz
  2012  09D7  29D9               	goto	l4619
  2013  09D8  299F               	goto	l3899
  2014  09D9                     l4619:	
  2015                           
  2016                           ; Switch size 1, requested type "simple"
  2017                           ; Number of cases is 15, Range of values is 1 to 15
  2018                           ; switch strategies available:
  2019                           ; Name         Instructions Cycles
  2020                           ; simple_byte           46    24 (average)
  2021                           ; direct_byte           56    11 (fixed)
  2022                           ; jumptable            263     9 (fixed)
  2023                           ;	Chosen strategy is simple_byte
  2024  09D9  0875               	movf	??_initADC,w
  2025  09DA  3A01               	xorlw	1	; case 1
  2026  09DB  1903               	skipnz
  2027  09DC  29A2               	goto	l3901
  2028  09DD  3A03               	xorlw	3	; case 2
  2029  09DE  1903               	skipnz
  2030  09DF  29A5               	goto	l3903
  2031  09E0  3A01               	xorlw	1	; case 3
  2032  09E1  1903               	skipnz
  2033  09E2  29A8               	goto	l3905
  2034  09E3  3A07               	xorlw	7	; case 4
  2035  09E4  1903               	skipnz
  2036  09E5  29AB               	goto	l3907
  2037  09E6  3A01               	xorlw	1	; case 5
  2038  09E7  1903               	skipnz
  2039  09E8  29AE               	goto	l3909
  2040  09E9  3A03               	xorlw	3	; case 6
  2041  09EA  1903               	skipnz
  2042  09EB  29B1               	goto	l3911
  2043  09EC  3A01               	xorlw	1	; case 7
  2044  09ED  1903               	skipnz
  2045  09EE  29B4               	goto	l3913
  2046  09EF  3A0F               	xorlw	15	; case 8
  2047  09F0  1903               	skipnz
  2048  09F1  29B7               	goto	l3915
  2049  09F2  3A01               	xorlw	1	; case 9
  2050  09F3  1903               	skipnz
  2051  09F4  29BA               	goto	l3917
  2052  09F5  3A03               	xorlw	3	; case 10
  2053  09F6  1903               	skipnz
  2054  09F7  29BD               	goto	l3919
  2055  09F8  3A01               	xorlw	1	; case 11
  2056  09F9  1903               	skipnz
  2057  09FA  29C0               	goto	l3921
  2058  09FB  3A07               	xorlw	7	; case 12
  2059  09FC  1903               	skipnz
  2060  09FD  29C3               	goto	l3923
  2061  09FE  3A01               	xorlw	1	; case 13
  2062  09FF  1903               	skipnz
  2063  0A00  29C6               	goto	l3925
  2064  0A01  3A03               	xorlw	3	; case 14
  2065  0A02  1903               	skipnz
  2066  0A03  29C9               	goto	l3927
  2067  0A04  3A01               	xorlw	1	; case 15
  2068  0A05  1903               	skipnz
  2069  0A06  29CC               	goto	l3929
  2070  0A07  299F               	goto	l3899
  2071  0A08                     l89:	
  2072                           
  2073                           ;adclib.c: 64:     PIE1bits.ADIE = 1;
  2074  0A08  1683               	bsf	3,5	;RP0=1, select bank1
  2075  0A09  1303               	bcf	3,6	;RP1=0, select bank1
  2076  0A0A  170C               	bsf	12,6	;volatile
  2077                           
  2078                           ;adclib.c: 65:     PIR1bits.ADIF = 0;
  2079  0A0B  1283               	bcf	3,5	;RP0=0, select bank0
  2080  0A0C  1303               	bcf	3,6	;RP1=0, select bank0
  2081  0A0D  130C               	bcf	12,6	;volatile
  2082                           
  2083                           ;adclib.c: 66:     ADCON0bits.GO = 1;
  2084  0A0E  149F               	bsf	31,1	;volatile
  2085  0A0F                     l105:	
  2086                           ;adclib.c: 67:     return;
  2087                           
  2088  0A0F  0008               	return
  2089  0A10                     __end_of_initADC:	
  2090                           
  2091                           	psect	text6
  2092  0381                     __ptext6:	
  2093 ;; *************** function _dispval2 *****************
  2094 ;; Defined at:
  2095 ;;		line 395 in file "LabLCDisp.c"
  2096 ;; Parameters:    Size  Location     Type
  2097 ;;  dataf           4   44[BANK0 ] float 
  2098 ;; Auto vars:     Size  Location     Type
  2099 ;;  vals            2   55[BANK0 ] int 
  2100 ;;  ent             2   53[BANK0 ] int 
  2101 ;;  dec1            2   51[BANK0 ] int 
  2102 ;;  dec2            2   49[BANK0 ] int 
  2103 ;; Return value:  Size  Location     Type
  2104 ;;                  1    wreg      void 
  2105 ;; Registers used:
  2106 ;;		wreg, fsr0l, fsr0h, status,2, status,0, btemp+1, pclath, cstack
  2107 ;; Tracked objects:
  2108 ;;		On entry : 0/0
  2109 ;;		On exit  : 0/0
  2110 ;;		Unchanged: 0/0
  2111 ;; Data sizes:     COMMON   BANK0   BANK1   BANK3   BANK2
  2112 ;;      Params:         0       4       0       0       0
  2113 ;;      Locals:         0       8       0       0       0
  2114 ;;      Temps:          0       1       0       0       0
  2115 ;;      Totals:         0      13       0       0       0
  2116 ;;Total ram usage:       13 bytes
  2117 ;; Hardware stack levels used:    1
  2118 ;; Hardware stack levels required when called:    4
  2119 ;; This function calls:
  2120 ;;		___awdiv
  2121 ;;		___awmod
  2122 ;;		___flmul
  2123 ;;		___fltol
  2124 ;;		_lcd_cursor_set
  2125 ;;		_lcd_wstring
  2126 ;; This function is called by:
  2127 ;;		_main
  2128 ;; This function uses a non-reentrant model
  2129 ;;
  2130                           
  2131                           
  2132                           ;psect for function _dispval2
  2133  0381                     _dispval2:	
  2134  0381                     l4059:	
  2135                           ;incstack = 0
  2136                           ; Regs used in _dispval2: [wreg-fsr0h+status,2+status,0+btemp+1+pclath+cstack]
  2137                           
  2138                           
  2139                           ;LabLCDisp.c: 396:     int vals;;LabLCDisp.c: 397:     int dec2;;LabLCDisp.c: 398:     i
      +                          nt dec1;;LabLCDisp.c: 399:     int ent;;LabLCDisp.c: 400:     vals = dataf*100.0f;
  2140  0381  1283               	bcf	3,5	;RP0=0, select bank0
  2141  0382  1303               	bcf	3,6	;RP1=0, select bank0
  2142  0383  084F               	movf	dispval2@dataf+3,w
  2143  0384  00AE               	movwf	___flmul@a+3
  2144  0385  084E               	movf	dispval2@dataf+2,w
  2145  0386  00AD               	movwf	___flmul@a+2
  2146  0387  084D               	movf	dispval2@dataf+1,w
  2147  0388  00AC               	movwf	___flmul@a+1
  2148  0389  084C               	movf	dispval2@dataf,w
  2149  038A  00AB               	movwf	___flmul@a
  2150  038B  3042               	movlw	66
  2151  038C  00AA               	movwf	___flmul@b+3
  2152  038D  30C8               	movlw	200
  2153  038E  00A9               	movwf	___flmul@b+2
  2154  038F  3000               	movlw	0
  2155  0390  00A8               	movwf	___flmul@b+1
  2156  0391  3000               	movlw	0
  2157  0392  00A7               	movwf	___flmul@b
  2158  0393  120A  118A  2020  120A  118A  	fcall	___flmul
  2159  0398  1283               	bcf	3,5	;RP0=0, select bank0
  2160  0399  1303               	bcf	3,6	;RP1=0, select bank0
  2161  039A  082A               	movf	?___flmul+3,w
  2162  039B  00C4               	movwf	___fltol@f1+3
  2163  039C  0829               	movf	?___flmul+2,w
  2164  039D  00C3               	movwf	___fltol@f1+2
  2165  039E  0828               	movf	?___flmul+1,w
  2166  039F  00C2               	movwf	___fltol@f1+1
  2167  03A0  0827               	movf	?___flmul,w
  2168  03A1  00C1               	movwf	___fltol@f1
  2169  03A2  120A  158A  2210  120A  118A  	fcall	___fltol
  2170  03A7  1283               	bcf	3,5	;RP0=0, select bank0
  2171  03A8  1303               	bcf	3,6	;RP1=0, select bank0
  2172  03A9  0842               	movf	?___fltol+1,w
  2173  03AA  00D8               	movwf	dispval2@vals+1
  2174  03AB  0841               	movf	?___fltol,w
  2175  03AC  00D7               	movwf	dispval2@vals
  2176  03AD                     l4061:	
  2177                           
  2178                           ;LabLCDisp.c: 402:     dec2 = vals%10;
  2179  03AD  300A               	movlw	10
  2180  03AE  00A0               	movwf	___awmod@divisor
  2181  03AF  3000               	movlw	0
  2182  03B0  00A1               	movwf	___awmod@divisor+1
  2183  03B1  0858               	movf	dispval2@vals+1,w
  2184  03B2  00A3               	movwf	___awmod@dividend+1
  2185  03B3  0857               	movf	dispval2@vals,w
  2186  03B4  00A2               	movwf	___awmod@dividend
  2187  03B5  120A  158A  20D4  120A  118A  	fcall	___awmod
  2188  03BA  1283               	bcf	3,5	;RP0=0, select bank0
  2189  03BB  1303               	bcf	3,6	;RP1=0, select bank0
  2190  03BC  0821               	movf	?___awmod+1,w
  2191  03BD  00D2               	movwf	dispval2@dec2+1
  2192  03BE  0820               	movf	?___awmod,w
  2193  03BF  00D1               	movwf	dispval2@dec2
  2194  03C0                     l4063:	
  2195                           
  2196                           ;LabLCDisp.c: 403:     vals = vals/10;
  2197  03C0  300A               	movlw	10
  2198  03C1  00A0               	movwf	___awdiv@divisor
  2199  03C2  3000               	movlw	0
  2200  03C3  00A1               	movwf	___awdiv@divisor+1
  2201  03C4  0858               	movf	dispval2@vals+1,w
  2202  03C5  00A3               	movwf	___awdiv@dividend+1
  2203  03C6  0857               	movf	dispval2@vals,w
  2204  03C7  00A2               	movwf	___awdiv@dividend
  2205  03C8  120A  158A  212F  120A  118A  	fcall	___awdiv
  2206  03CD  1283               	bcf	3,5	;RP0=0, select bank0
  2207  03CE  1303               	bcf	3,6	;RP1=0, select bank0
  2208  03CF  0821               	movf	?___awdiv+1,w
  2209  03D0  00D8               	movwf	dispval2@vals+1
  2210  03D1  0820               	movf	?___awdiv,w
  2211  03D2  00D7               	movwf	dispval2@vals
  2212  03D3                     l4065:	
  2213                           
  2214                           ;LabLCDisp.c: 404:     dec1 = vals%10;
  2215  03D3  300A               	movlw	10
  2216  03D4  00A0               	movwf	___awmod@divisor
  2217  03D5  3000               	movlw	0
  2218  03D6  00A1               	movwf	___awmod@divisor+1
  2219  03D7  0858               	movf	dispval2@vals+1,w
  2220  03D8  00A3               	movwf	___awmod@dividend+1
  2221  03D9  0857               	movf	dispval2@vals,w
  2222  03DA  00A2               	movwf	___awmod@dividend
  2223  03DB  120A  158A  20D4  120A  118A  	fcall	___awmod
  2224  03E0  1283               	bcf	3,5	;RP0=0, select bank0
  2225  03E1  1303               	bcf	3,6	;RP1=0, select bank0
  2226  03E2  0821               	movf	?___awmod+1,w
  2227  03E3  00D4               	movwf	dispval2@dec1+1
  2228  03E4  0820               	movf	?___awmod,w
  2229  03E5  00D3               	movwf	dispval2@dec1
  2230  03E6                     l4067:	
  2231                           
  2232                           ;LabLCDisp.c: 405:     ent = vals/10;
  2233  03E6  300A               	movlw	10
  2234  03E7  00A0               	movwf	___awdiv@divisor
  2235  03E8  3000               	movlw	0
  2236  03E9  00A1               	movwf	___awdiv@divisor+1
  2237  03EA  0858               	movf	dispval2@vals+1,w
  2238  03EB  00A3               	movwf	___awdiv@dividend+1
  2239  03EC  0857               	movf	dispval2@vals,w
  2240  03ED  00A2               	movwf	___awdiv@dividend
  2241  03EE  120A  158A  212F  120A  118A  	fcall	___awdiv
  2242  03F3  1283               	bcf	3,5	;RP0=0, select bank0
  2243  03F4  1303               	bcf	3,6	;RP1=0, select bank0
  2244  03F5  0821               	movf	?___awdiv+1,w
  2245  03F6  00D6               	movwf	dispval2@ent+1
  2246  03F7  0820               	movf	?___awdiv,w
  2247  03F8  00D5               	movwf	dispval2@ent
  2248                           
  2249                           ;LabLCDisp.c: 406:     switch (ent){
  2250  03F9  2CA4               	goto	l4111
  2251  03FA                     l4069:	
  2252                           
  2253                           ;LabLCDisp.c: 408:             lcd_cursor_set(2,7);
  2254  03FA  3007               	movlw	7
  2255  03FB  00D0               	movwf	??_dispval2
  2256  03FC  0850               	movf	??_dispval2,w
  2257  03FD  00A2               	movwf	lcd_cursor_set@y
  2258  03FE  3002               	movlw	2
  2259  03FF  160A  118A  27B1  120A  118A  	fcall	_lcd_cursor_set
  2260  0404                     l4071:	
  2261                           
  2262                           ;LabLCDisp.c: 409:             lcd_wstring("0");
  2263  0404  3010               	movlw	(low ((STR_4-__stringbase)| (0+32768)))& (0+255)
  2264  0405  160A  118A  27D7  120A  118A  	fcall	_lcd_wstring
  2265                           
  2266                           ;LabLCDisp.c: 410:             break;
  2267  040A  2CC9               	goto	l4113
  2268  040B                     l4073:	
  2269                           
  2270                           ;LabLCDisp.c: 412:             lcd_cursor_set(2,7);
  2271  040B  3007               	movlw	7
  2272  040C  00D0               	movwf	??_dispval2
  2273  040D  0850               	movf	??_dispval2,w
  2274  040E  00A2               	movwf	lcd_cursor_set@y
  2275  040F  3002               	movlw	2
  2276  0410  160A  118A  27B1  120A  118A  	fcall	_lcd_cursor_set
  2277  0415                     l4075:	
  2278                           
  2279                           ;LabLCDisp.c: 413:             lcd_wstring("1");
  2280  0415  3008               	movlw	(low (((STR_1+2)-__stringbase)| (0+32768)))& (0+255)
  2281  0416  160A  118A  27D7  120A  118A  	fcall	_lcd_wstring
  2282                           
  2283                           ;LabLCDisp.c: 414:             break;
  2284  041B  2CC9               	goto	l4113
  2285  041C                     l4077:	
  2286                           
  2287                           ;LabLCDisp.c: 416:             lcd_cursor_set(2,7);
  2288  041C  3007               	movlw	7
  2289  041D  00D0               	movwf	??_dispval2
  2290  041E  0850               	movf	??_dispval2,w
  2291  041F  00A2               	movwf	lcd_cursor_set@y
  2292  0420  3002               	movlw	2
  2293  0421  160A  118A  27B1  120A  118A  	fcall	_lcd_cursor_set
  2294  0426                     l4079:	
  2295                           
  2296                           ;LabLCDisp.c: 417:             lcd_wstring("2");
  2297  0426  300C               	movlw	(low (((STR_2+2)-__stringbase)| (0+32768)))& (0+255)
  2298  0427  160A  118A  27D7  120A  118A  	fcall	_lcd_wstring
  2299                           
  2300                           ;LabLCDisp.c: 418:             break;
  2301  042C  2CC9               	goto	l4113
  2302  042D                     l4081:	
  2303                           
  2304                           ;LabLCDisp.c: 420:             lcd_cursor_set(2,7);
  2305  042D  3007               	movlw	7
  2306  042E  00D0               	movwf	??_dispval2
  2307  042F  0850               	movf	??_dispval2,w
  2308  0430  00A2               	movwf	lcd_cursor_set@y
  2309  0431  3002               	movlw	2
  2310  0432  160A  118A  27B1  120A  118A  	fcall	_lcd_cursor_set
  2311  0437                     l4083:	
  2312                           
  2313                           ;LabLCDisp.c: 421:             lcd_wstring("3");
  2314  0437  3012               	movlw	(low ((STR_7-__stringbase)| (0+32768)))& (0+255)
  2315  0438  160A  118A  27D7  120A  118A  	fcall	_lcd_wstring
  2316                           
  2317                           ;LabLCDisp.c: 422:             break;
  2318  043D  2CC9               	goto	l4113
  2319  043E                     l4085:	
  2320                           
  2321                           ;LabLCDisp.c: 424:             lcd_cursor_set(2,7);
  2322  043E  3007               	movlw	7
  2323  043F  00D0               	movwf	??_dispval2
  2324  0440  0850               	movf	??_dispval2,w
  2325  0441  00A2               	movwf	lcd_cursor_set@y
  2326  0442  3002               	movlw	2
  2327  0443  160A  118A  27B1  120A  118A  	fcall	_lcd_cursor_set
  2328  0448                     l4087:	
  2329                           
  2330                           ;LabLCDisp.c: 425:             lcd_wstring("4");
  2331  0448  3014               	movlw	(low ((STR_8-__stringbase)| (0+32768)))& (0+255)
  2332  0449  160A  118A  27D7  120A  118A  	fcall	_lcd_wstring
  2333                           
  2334                           ;LabLCDisp.c: 426:             break;
  2335  044E  2CC9               	goto	l4113
  2336  044F                     l4089:	
  2337                           
  2338                           ;LabLCDisp.c: 428:             lcd_cursor_set(2,7);
  2339  044F  3007               	movlw	7
  2340  0450  00D0               	movwf	??_dispval2
  2341  0451  0850               	movf	??_dispval2,w
  2342  0452  00A2               	movwf	lcd_cursor_set@y
  2343  0453  3002               	movlw	2
  2344  0454  160A  118A  27B1  120A  118A  	fcall	_lcd_cursor_set
  2345  0459                     l4091:	
  2346                           
  2347                           ;LabLCDisp.c: 429:             lcd_wstring("5");
  2348  0459  3016               	movlw	(low ((STR_9-__stringbase)| (0+32768)))& (0+255)
  2349  045A  160A  118A  27D7  120A  118A  	fcall	_lcd_wstring
  2350                           
  2351                           ;LabLCDisp.c: 430:             break;
  2352  045F  2CC9               	goto	l4113
  2353  0460                     l4093:	
  2354                           
  2355                           ;LabLCDisp.c: 432:             lcd_cursor_set(2,7);
  2356  0460  3007               	movlw	7
  2357  0461  00D0               	movwf	??_dispval2
  2358  0462  0850               	movf	??_dispval2,w
  2359  0463  00A2               	movwf	lcd_cursor_set@y
  2360  0464  3002               	movlw	2
  2361  0465  160A  118A  27B1  120A  118A  	fcall	_lcd_cursor_set
  2362  046A                     l4095:	
  2363                           
  2364                           ;LabLCDisp.c: 433:             lcd_wstring("6");
  2365  046A  3018               	movlw	(low ((STR_10-__stringbase)| (0+32768)))& (0+255)
  2366  046B  160A  118A  27D7  120A  118A  	fcall	_lcd_wstring
  2367                           
  2368                           ;LabLCDisp.c: 434:             break;
  2369  0470  2CC9               	goto	l4113
  2370  0471                     l4097:	
  2371                           
  2372                           ;LabLCDisp.c: 436:             lcd_cursor_set(2,7);
  2373  0471  3007               	movlw	7
  2374  0472  00D0               	movwf	??_dispval2
  2375  0473  0850               	movf	??_dispval2,w
  2376  0474  00A2               	movwf	lcd_cursor_set@y
  2377  0475  3002               	movlw	2
  2378  0476  160A  118A  27B1  120A  118A  	fcall	_lcd_cursor_set
  2379  047B                     l4099:	
  2380                           
  2381                           ;LabLCDisp.c: 437:             lcd_wstring("7");
  2382  047B  301A               	movlw	(low ((STR_11-__stringbase)| (0+32768)))& (0+255)
  2383  047C  160A  118A  27D7  120A  118A  	fcall	_lcd_wstring
  2384                           
  2385                           ;LabLCDisp.c: 438:             break;
  2386  0481  2CC9               	goto	l4113
  2387  0482                     l4101:	
  2388                           
  2389                           ;LabLCDisp.c: 440:             lcd_cursor_set(2,7);
  2390  0482  3007               	movlw	7
  2391  0483  00D0               	movwf	??_dispval2
  2392  0484  0850               	movf	??_dispval2,w
  2393  0485  00A2               	movwf	lcd_cursor_set@y
  2394  0486  3002               	movlw	2
  2395  0487  160A  118A  27B1  120A  118A  	fcall	_lcd_cursor_set
  2396  048C                     l4103:	
  2397                           
  2398                           ;LabLCDisp.c: 441:             lcd_wstring("8");
  2399  048C  301C               	movlw	(low ((STR_12-__stringbase)| (0+32768)))& (0+255)
  2400  048D  160A  118A  27D7  120A  118A  	fcall	_lcd_wstring
  2401                           
  2402                           ;LabLCDisp.c: 442:             break;
  2403  0492  2CC9               	goto	l4113
  2404  0493                     l4105:	
  2405                           
  2406                           ;LabLCDisp.c: 444:             lcd_cursor_set(2,7);
  2407  0493  3007               	movlw	7
  2408  0494  00D0               	movwf	??_dispval2
  2409  0495  0850               	movf	??_dispval2,w
  2410  0496  00A2               	movwf	lcd_cursor_set@y
  2411  0497  3002               	movlw	2
  2412  0498  160A  118A  27B1  120A  118A  	fcall	_lcd_cursor_set
  2413  049D                     l4107:	
  2414                           
  2415                           ;LabLCDisp.c: 445:             lcd_wstring("9");
  2416  049D  301E               	movlw	(low ((STR_13-__stringbase)| (0+32768)))& (0+255)
  2417  049E  160A  118A  27D7  120A  118A  	fcall	_lcd_wstring
  2418                           
  2419                           ;LabLCDisp.c: 446:             break;
  2420  04A3  2CC9               	goto	l4113
  2421  04A4                     l4111:	
  2422                           
  2423                           ; Switch on 2 bytes has been partitioned into a top level switch of size 1, and 1 sub-sw
      +                          itches
  2424                           ; Switch size 1, requested type "simple"
  2425                           ; Number of cases is 1, Range of values is 0 to 0
  2426                           ; switch strategies available:
  2427                           ; Name         Instructions Cycles
  2428                           ; simple_byte            4     3 (average)
  2429                           ; direct_byte           11     8 (fixed)
  2430                           ; jumptable            260     6 (fixed)
  2431                           ;	Chosen strategy is simple_byte
  2432  04A4  0856               	movf	dispval2@ent+1,w
  2433  04A5  3A00               	xorlw	0	; case 0
  2434  04A6  1903               	skipnz
  2435  04A7  2CA9               	goto	l4621
  2436  04A8  2CC9               	goto	l4113
  2437  04A9                     l4621:	
  2438                           
  2439                           ; Switch size 1, requested type "simple"
  2440                           ; Number of cases is 10, Range of values is 0 to 9
  2441                           ; switch strategies available:
  2442                           ; Name         Instructions Cycles
  2443                           ; simple_byte           31    16 (average)
  2444                           ; direct_byte           38     8 (fixed)
  2445                           ; jumptable            260     6 (fixed)
  2446                           ;	Chosen strategy is simple_byte
  2447  04A9  0855               	movf	dispval2@ent,w
  2448  04AA  3A00               	xorlw	0	; case 0
  2449  04AB  1903               	skipnz
  2450  04AC  2BFA               	goto	l4069
  2451  04AD  3A01               	xorlw	1	; case 1
  2452  04AE  1903               	skipnz
  2453  04AF  2C0B               	goto	l4073
  2454  04B0  3A03               	xorlw	3	; case 2
  2455  04B1  1903               	skipnz
  2456  04B2  2C1C               	goto	l4077
  2457  04B3  3A01               	xorlw	1	; case 3
  2458  04B4  1903               	skipnz
  2459  04B5  2C2D               	goto	l4081
  2460  04B6  3A07               	xorlw	7	; case 4
  2461  04B7  1903               	skipnz
  2462  04B8  2C3E               	goto	l4085
  2463  04B9  3A01               	xorlw	1	; case 5
  2464  04BA  1903               	skipnz
  2465  04BB  2C4F               	goto	l4089
  2466  04BC  3A03               	xorlw	3	; case 6
  2467  04BD  1903               	skipnz
  2468  04BE  2C60               	goto	l4093
  2469  04BF  3A01               	xorlw	1	; case 7
  2470  04C0  1903               	skipnz
  2471  04C1  2C71               	goto	l4097
  2472  04C2  3A0F               	xorlw	15	; case 8
  2473  04C3  1903               	skipnz
  2474  04C4  2C82               	goto	l4101
  2475  04C5  3A01               	xorlw	1	; case 9
  2476  04C6  1903               	skipnz
  2477  04C7  2C93               	goto	l4105
  2478  04C8  2CC9               	goto	l4113
  2479  04C9                     l4113:	
  2480                           
  2481                           ;LabLCDisp.c: 448:     lcd_wstring(".");
  2482  04C9  300E               	movlw	(low ((STR_44-__stringbase)| (0+32768)))& (0+255)
  2483  04CA  160A  118A  27D7  120A  118A  	fcall	_lcd_wstring
  2484                           
  2485                           ;LabLCDisp.c: 449:     switch (dec1){
  2486  04CF  2D16               	goto	l4137
  2487  04D0                     l4115:	
  2488                           
  2489                           ;LabLCDisp.c: 451:             lcd_wstring("0");
  2490  04D0  3010               	movlw	(low ((STR_4-__stringbase)| (0+32768)))& (0+255)
  2491  04D1  160A  118A  27D7  120A  118A  	fcall	_lcd_wstring
  2492                           
  2493                           ;LabLCDisp.c: 452:             break;
  2494  04D6  2D83               	goto	l4161
  2495  04D7                     l4117:	
  2496                           
  2497                           ;LabLCDisp.c: 454:             lcd_wstring("1");
  2498  04D7  3008               	movlw	(low (((STR_1+2)-__stringbase)| (0+32768)))& (0+255)
  2499  04D8  160A  118A  27D7  120A  118A  	fcall	_lcd_wstring
  2500                           
  2501                           ;LabLCDisp.c: 455:             break;
  2502  04DD  2D83               	goto	l4161
  2503  04DE                     l4119:	
  2504                           
  2505                           ;LabLCDisp.c: 457:             lcd_wstring("2");
  2506  04DE  300C               	movlw	(low (((STR_2+2)-__stringbase)| (0+32768)))& (0+255)
  2507  04DF  160A  118A  27D7  120A  118A  	fcall	_lcd_wstring
  2508                           
  2509                           ;LabLCDisp.c: 458:             break;
  2510  04E4  2D83               	goto	l4161
  2511  04E5                     l4121:	
  2512                           
  2513                           ;LabLCDisp.c: 460:             lcd_wstring("3");
  2514  04E5  3012               	movlw	(low ((STR_7-__stringbase)| (0+32768)))& (0+255)
  2515  04E6  160A  118A  27D7  120A  118A  	fcall	_lcd_wstring
  2516                           
  2517                           ;LabLCDisp.c: 461:             break;
  2518  04EB  2D83               	goto	l4161
  2519  04EC                     l4123:	
  2520                           
  2521                           ;LabLCDisp.c: 463:             lcd_wstring("4");
  2522  04EC  3014               	movlw	(low ((STR_8-__stringbase)| (0+32768)))& (0+255)
  2523  04ED  160A  118A  27D7  120A  118A  	fcall	_lcd_wstring
  2524                           
  2525                           ;LabLCDisp.c: 464:             break;
  2526  04F2  2D83               	goto	l4161
  2527  04F3                     l4125:	
  2528                           
  2529                           ;LabLCDisp.c: 466:             lcd_wstring("5");
  2530  04F3  3016               	movlw	(low ((STR_9-__stringbase)| (0+32768)))& (0+255)
  2531  04F4  160A  118A  27D7  120A  118A  	fcall	_lcd_wstring
  2532                           
  2533                           ;LabLCDisp.c: 467:             break;
  2534  04F9  2D83               	goto	l4161
  2535  04FA                     l4127:	
  2536                           
  2537                           ;LabLCDisp.c: 469:             lcd_wstring("6");
  2538  04FA  3018               	movlw	(low ((STR_10-__stringbase)| (0+32768)))& (0+255)
  2539  04FB  160A  118A  27D7  120A  118A  	fcall	_lcd_wstring
  2540                           
  2541                           ;LabLCDisp.c: 470:             break;
  2542  0500  2D83               	goto	l4161
  2543  0501                     l4129:	
  2544                           
  2545                           ;LabLCDisp.c: 472:             lcd_wstring("7");
  2546  0501  301A               	movlw	(low ((STR_11-__stringbase)| (0+32768)))& (0+255)
  2547  0502  160A  118A  27D7  120A  118A  	fcall	_lcd_wstring
  2548                           
  2549                           ;LabLCDisp.c: 473:             break;
  2550  0507  2D83               	goto	l4161
  2551  0508                     l4131:	
  2552                           
  2553                           ;LabLCDisp.c: 475:             lcd_wstring("8");
  2554  0508  301C               	movlw	(low ((STR_12-__stringbase)| (0+32768)))& (0+255)
  2555  0509  160A  118A  27D7  120A  118A  	fcall	_lcd_wstring
  2556                           
  2557                           ;LabLCDisp.c: 476:             break;
  2558  050E  2D83               	goto	l4161
  2559  050F                     l4133:	
  2560                           
  2561                           ;LabLCDisp.c: 478:             lcd_wstring("9");
  2562  050F  301E               	movlw	(low ((STR_13-__stringbase)| (0+32768)))& (0+255)
  2563  0510  160A  118A  27D7  120A  118A  	fcall	_lcd_wstring
  2564                           
  2565                           ;LabLCDisp.c: 479:             break;
  2566  0515  2D83               	goto	l4161
  2567  0516                     l4137:	
  2568                           
  2569                           ; Switch on 2 bytes has been partitioned into a top level switch of size 1, and 1 sub-sw
      +                          itches
  2570                           ; Switch size 1, requested type "simple"
  2571                           ; Number of cases is 1, Range of values is 0 to 0
  2572                           ; switch strategies available:
  2573                           ; Name         Instructions Cycles
  2574                           ; simple_byte            4     3 (average)
  2575                           ; direct_byte           11     8 (fixed)
  2576                           ; jumptable            260     6 (fixed)
  2577                           ;	Chosen strategy is simple_byte
  2578  0516  1283               	bcf	3,5	;RP0=0, select bank0
  2579  0517  1303               	bcf	3,6	;RP1=0, select bank0
  2580  0518  0854               	movf	dispval2@dec1+1,w
  2581  0519  3A00               	xorlw	0	; case 0
  2582  051A  1903               	skipnz
  2583  051B  2D1D               	goto	l4623
  2584  051C  2D83               	goto	l4161
  2585  051D                     l4623:	
  2586                           
  2587                           ; Switch size 1, requested type "simple"
  2588                           ; Number of cases is 10, Range of values is 0 to 9
  2589                           ; switch strategies available:
  2590                           ; Name         Instructions Cycles
  2591                           ; simple_byte           31    16 (average)
  2592                           ; direct_byte           38     8 (fixed)
  2593                           ; jumptable            260     6 (fixed)
  2594                           ;	Chosen strategy is simple_byte
  2595  051D  0853               	movf	dispval2@dec1,w
  2596  051E  3A00               	xorlw	0	; case 0
  2597  051F  1903               	skipnz
  2598  0520  2CD0               	goto	l4115
  2599  0521  3A01               	xorlw	1	; case 1
  2600  0522  1903               	skipnz
  2601  0523  2CD7               	goto	l4117
  2602  0524  3A03               	xorlw	3	; case 2
  2603  0525  1903               	skipnz
  2604  0526  2CDE               	goto	l4119
  2605  0527  3A01               	xorlw	1	; case 3
  2606  0528  1903               	skipnz
  2607  0529  2CE5               	goto	l4121
  2608  052A  3A07               	xorlw	7	; case 4
  2609  052B  1903               	skipnz
  2610  052C  2CEC               	goto	l4123
  2611  052D  3A01               	xorlw	1	; case 5
  2612  052E  1903               	skipnz
  2613  052F  2CF3               	goto	l4125
  2614  0530  3A03               	xorlw	3	; case 6
  2615  0531  1903               	skipnz
  2616  0532  2CFA               	goto	l4127
  2617  0533  3A01               	xorlw	1	; case 7
  2618  0534  1903               	skipnz
  2619  0535  2D01               	goto	l4129
  2620  0536  3A0F               	xorlw	15	; case 8
  2621  0537  1903               	skipnz
  2622  0538  2D08               	goto	l4131
  2623  0539  3A01               	xorlw	1	; case 9
  2624  053A  1903               	skipnz
  2625  053B  2D0F               	goto	l4133
  2626  053C  2D83               	goto	l4161
  2627  053D                     l4139:	
  2628                           
  2629                           ;LabLCDisp.c: 483:             lcd_wstring("0");
  2630  053D  3010               	movlw	(low ((STR_4-__stringbase)| (0+32768)))& (0+255)
  2631  053E  160A  118A  27D7  120A  118A  	fcall	_lcd_wstring
  2632                           
  2633                           ;LabLCDisp.c: 484:             break;
  2634  0543  2DAA               	goto	l4163
  2635  0544                     l4141:	
  2636                           
  2637                           ;LabLCDisp.c: 486:             lcd_wstring("1");
  2638  0544  3008               	movlw	(low (((STR_1+2)-__stringbase)| (0+32768)))& (0+255)
  2639  0545  160A  118A  27D7  120A  118A  	fcall	_lcd_wstring
  2640                           
  2641                           ;LabLCDisp.c: 487:             break;
  2642  054A  2DAA               	goto	l4163
  2643  054B                     l4143:	
  2644                           
  2645                           ;LabLCDisp.c: 489:             lcd_wstring("2");
  2646  054B  300C               	movlw	(low (((STR_2+2)-__stringbase)| (0+32768)))& (0+255)
  2647  054C  160A  118A  27D7  120A  118A  	fcall	_lcd_wstring
  2648                           
  2649                           ;LabLCDisp.c: 490:             break;
  2650  0551  2DAA               	goto	l4163
  2651  0552                     l4145:	
  2652                           
  2653                           ;LabLCDisp.c: 492:             lcd_wstring("3");
  2654  0552  3012               	movlw	(low ((STR_7-__stringbase)| (0+32768)))& (0+255)
  2655  0553  160A  118A  27D7  120A  118A  	fcall	_lcd_wstring
  2656                           
  2657                           ;LabLCDisp.c: 493:             break;
  2658  0558  2DAA               	goto	l4163
  2659  0559                     l4147:	
  2660                           
  2661                           ;LabLCDisp.c: 495:             lcd_wstring("4");
  2662  0559  3014               	movlw	(low ((STR_8-__stringbase)| (0+32768)))& (0+255)
  2663  055A  160A  118A  27D7  120A  118A  	fcall	_lcd_wstring
  2664                           
  2665                           ;LabLCDisp.c: 496:             break;
  2666  055F  2DAA               	goto	l4163
  2667  0560                     l4149:	
  2668                           
  2669                           ;LabLCDisp.c: 498:             lcd_wstring("5");
  2670  0560  3016               	movlw	(low ((STR_9-__stringbase)| (0+32768)))& (0+255)
  2671  0561  160A  118A  27D7  120A  118A  	fcall	_lcd_wstring
  2672                           
  2673                           ;LabLCDisp.c: 499:             break;
  2674  0566  2DAA               	goto	l4163
  2675  0567                     l4151:	
  2676                           
  2677                           ;LabLCDisp.c: 501:             lcd_wstring("6");
  2678  0567  3018               	movlw	(low ((STR_10-__stringbase)| (0+32768)))& (0+255)
  2679  0568  160A  118A  27D7  120A  118A  	fcall	_lcd_wstring
  2680                           
  2681                           ;LabLCDisp.c: 502:             break;
  2682  056D  2DAA               	goto	l4163
  2683  056E                     l4153:	
  2684                           
  2685                           ;LabLCDisp.c: 504:             lcd_wstring("7");
  2686  056E  301A               	movlw	(low ((STR_11-__stringbase)| (0+32768)))& (0+255)
  2687  056F  160A  118A  27D7  120A  118A  	fcall	_lcd_wstring
  2688                           
  2689                           ;LabLCDisp.c: 505:             break;
  2690  0574  2DAA               	goto	l4163
  2691  0575                     l4155:	
  2692                           
  2693                           ;LabLCDisp.c: 507:             lcd_wstring("8");
  2694  0575  301C               	movlw	(low ((STR_12-__stringbase)| (0+32768)))& (0+255)
  2695  0576  160A  118A  27D7  120A  118A  	fcall	_lcd_wstring
  2696                           
  2697                           ;LabLCDisp.c: 508:             break;
  2698  057B  2DAA               	goto	l4163
  2699  057C                     l4157:	
  2700                           
  2701                           ;LabLCDisp.c: 510:             lcd_wstring("9");
  2702  057C  301E               	movlw	(low ((STR_13-__stringbase)| (0+32768)))& (0+255)
  2703  057D  160A  118A  27D7  120A  118A  	fcall	_lcd_wstring
  2704                           
  2705                           ;LabLCDisp.c: 511:             break;
  2706  0582  2DAA               	goto	l4163
  2707  0583                     l4161:	
  2708                           
  2709                           ; Switch on 2 bytes has been partitioned into a top level switch of size 1, and 1 sub-sw
      +                          itches
  2710                           ; Switch size 1, requested type "simple"
  2711                           ; Number of cases is 1, Range of values is 0 to 0
  2712                           ; switch strategies available:
  2713                           ; Name         Instructions Cycles
  2714                           ; simple_byte            4     3 (average)
  2715                           ; direct_byte           11     8 (fixed)
  2716                           ; jumptable            260     6 (fixed)
  2717                           ;	Chosen strategy is simple_byte
  2718  0583  1283               	bcf	3,5	;RP0=0, select bank0
  2719  0584  1303               	bcf	3,6	;RP1=0, select bank0
  2720  0585  0852               	movf	dispval2@dec2+1,w
  2721  0586  3A00               	xorlw	0	; case 0
  2722  0587  1903               	skipnz
  2723  0588  2D8A               	goto	l4625
  2724  0589  2DAA               	goto	l4163
  2725  058A                     l4625:	
  2726                           
  2727                           ; Switch size 1, requested type "simple"
  2728                           ; Number of cases is 10, Range of values is 0 to 9
  2729                           ; switch strategies available:
  2730                           ; Name         Instructions Cycles
  2731                           ; simple_byte           31    16 (average)
  2732                           ; direct_byte           38     8 (fixed)
  2733                           ; jumptable            260     6 (fixed)
  2734                           ;	Chosen strategy is simple_byte
  2735  058A  0851               	movf	dispval2@dec2,w
  2736  058B  3A00               	xorlw	0	; case 0
  2737  058C  1903               	skipnz
  2738  058D  2D3D               	goto	l4139
  2739  058E  3A01               	xorlw	1	; case 1
  2740  058F  1903               	skipnz
  2741  0590  2D44               	goto	l4141
  2742  0591  3A03               	xorlw	3	; case 2
  2743  0592  1903               	skipnz
  2744  0593  2D4B               	goto	l4143
  2745  0594  3A01               	xorlw	1	; case 3
  2746  0595  1903               	skipnz
  2747  0596  2D52               	goto	l4145
  2748  0597  3A07               	xorlw	7	; case 4
  2749  0598  1903               	skipnz
  2750  0599  2D59               	goto	l4147
  2751  059A  3A01               	xorlw	1	; case 5
  2752  059B  1903               	skipnz
  2753  059C  2D60               	goto	l4149
  2754  059D  3A03               	xorlw	3	; case 6
  2755  059E  1903               	skipnz
  2756  059F  2D67               	goto	l4151
  2757  05A0  3A01               	xorlw	1	; case 7
  2758  05A1  1903               	skipnz
  2759  05A2  2D6E               	goto	l4153
  2760  05A3  3A0F               	xorlw	15	; case 8
  2761  05A4  1903               	skipnz
  2762  05A5  2D75               	goto	l4155
  2763  05A6  3A01               	xorlw	1	; case 9
  2764  05A7  1903               	skipnz
  2765  05A8  2D7C               	goto	l4157
  2766  05A9  2DAA               	goto	l4163
  2767  05AA                     l4163:	
  2768                           
  2769                           ;LabLCDisp.c: 513:     lcd_wstring("V");
  2770  05AA  3020               	movlw	(low ((STR_65-__stringbase)| (0+32768)))& (0+255)
  2771  05AB  160A  118A  27D7  120A  118A  	fcall	_lcd_wstring
  2772  05B0                     l307:	
  2773  05B0  0008               	return
  2774  05B1                     __end_of_dispval2:	
  2775                           
  2776                           	psect	text7
  2777  05B1                     __ptext7:	
  2778 ;; *************** function _dispval1 *****************
  2779 ;; Defined at:
  2780 ;;		line 273 in file "LabLCDisp.c"
  2781 ;; Parameters:    Size  Location     Type
  2782 ;;  dataf           4   44[BANK0 ] float 
  2783 ;; Auto vars:     Size  Location     Type
  2784 ;;  vals            2   54[BANK0 ] int 
  2785 ;;  ent             2   52[BANK0 ] int 
  2786 ;;  dec1            2   50[BANK0 ] int 
  2787 ;;  dec2            2   48[BANK0 ] int 
  2788 ;; Return value:  Size  Location     Type
  2789 ;;                  1    wreg      void 
  2790 ;; Registers used:
  2791 ;;		wreg, fsr0l, fsr0h, status,2, status,0, btemp+1, pclath, cstack
  2792 ;; Tracked objects:
  2793 ;;		On entry : 0/0
  2794 ;;		On exit  : 0/0
  2795 ;;		Unchanged: 0/0
  2796 ;; Data sizes:     COMMON   BANK0   BANK1   BANK3   BANK2
  2797 ;;      Params:         0       4       0       0       0
  2798 ;;      Locals:         0       8       0       0       0
  2799 ;;      Temps:          0       0       0       0       0
  2800 ;;      Totals:         0      12       0       0       0
  2801 ;;Total ram usage:       12 bytes
  2802 ;; Hardware stack levels used:    1
  2803 ;; Hardware stack levels required when called:    4
  2804 ;; This function calls:
  2805 ;;		___awdiv
  2806 ;;		___awmod
  2807 ;;		___flmul
  2808 ;;		___fltol
  2809 ;;		_lcd_cursor_set
  2810 ;;		_lcd_wstring
  2811 ;; This function is called by:
  2812 ;;		_main
  2813 ;; This function uses a non-reentrant model
  2814 ;;
  2815                           
  2816                           
  2817                           ;psect for function _dispval1
  2818  05B1                     _dispval1:	
  2819  05B1                     l3939:	
  2820                           ;incstack = 0
  2821                           ; Regs used in _dispval1: [wreg-fsr0h+status,2+status,0+btemp+1+pclath+cstack]
  2822                           
  2823                           
  2824                           ;LabLCDisp.c: 274:     int vals;;LabLCDisp.c: 275:     int dec2;;LabLCDisp.c: 276:     i
      +                          nt dec1;;LabLCDisp.c: 277:     int ent;;LabLCDisp.c: 278:     vals = dataf*100.0f;
  2825  05B1  1283               	bcf	3,5	;RP0=0, select bank0
  2826  05B2  1303               	bcf	3,6	;RP1=0, select bank0
  2827  05B3  084F               	movf	dispval1@dataf+3,w
  2828  05B4  00AE               	movwf	___flmul@a+3
  2829  05B5  084E               	movf	dispval1@dataf+2,w
  2830  05B6  00AD               	movwf	___flmul@a+2
  2831  05B7  084D               	movf	dispval1@dataf+1,w
  2832  05B8  00AC               	movwf	___flmul@a+1
  2833  05B9  084C               	movf	dispval1@dataf,w
  2834  05BA  00AB               	movwf	___flmul@a
  2835  05BB  3042               	movlw	66
  2836  05BC  00AA               	movwf	___flmul@b+3
  2837  05BD  30C8               	movlw	200
  2838  05BE  00A9               	movwf	___flmul@b+2
  2839  05BF  3000               	movlw	0
  2840  05C0  00A8               	movwf	___flmul@b+1
  2841  05C1  3000               	movlw	0
  2842  05C2  00A7               	movwf	___flmul@b
  2843  05C3  120A  118A  2020  120A  118A  	fcall	___flmul
  2844  05C8  1283               	bcf	3,5	;RP0=0, select bank0
  2845  05C9  1303               	bcf	3,6	;RP1=0, select bank0
  2846  05CA  082A               	movf	?___flmul+3,w
  2847  05CB  00C4               	movwf	___fltol@f1+3
  2848  05CC  0829               	movf	?___flmul+2,w
  2849  05CD  00C3               	movwf	___fltol@f1+2
  2850  05CE  0828               	movf	?___flmul+1,w
  2851  05CF  00C2               	movwf	___fltol@f1+1
  2852  05D0  0827               	movf	?___flmul,w
  2853  05D1  00C1               	movwf	___fltol@f1
  2854  05D2  120A  158A  2210  120A  118A  	fcall	___fltol
  2855  05D7  1283               	bcf	3,5	;RP0=0, select bank0
  2856  05D8  1303               	bcf	3,6	;RP1=0, select bank0
  2857  05D9  0842               	movf	?___fltol+1,w
  2858  05DA  00D7               	movwf	dispval1@vals+1
  2859  05DB  0841               	movf	?___fltol,w
  2860  05DC  00D6               	movwf	dispval1@vals
  2861  05DD                     l3941:	
  2862                           
  2863                           ;LabLCDisp.c: 280:     dec2 = vals%10;
  2864  05DD  300A               	movlw	10
  2865  05DE  00A0               	movwf	___awmod@divisor
  2866  05DF  3000               	movlw	0
  2867  05E0  00A1               	movwf	___awmod@divisor+1
  2868  05E1  0857               	movf	dispval1@vals+1,w
  2869  05E2  00A3               	movwf	___awmod@dividend+1
  2870  05E3  0856               	movf	dispval1@vals,w
  2871  05E4  00A2               	movwf	___awmod@dividend
  2872  05E5  120A  158A  20D4  120A  118A  	fcall	___awmod
  2873  05EA  1283               	bcf	3,5	;RP0=0, select bank0
  2874  05EB  1303               	bcf	3,6	;RP1=0, select bank0
  2875  05EC  0821               	movf	?___awmod+1,w
  2876  05ED  00D1               	movwf	dispval1@dec2+1
  2877  05EE  0820               	movf	?___awmod,w
  2878  05EF  00D0               	movwf	dispval1@dec2
  2879  05F0                     l3943:	
  2880                           
  2881                           ;LabLCDisp.c: 281:     vals = vals/10;
  2882  05F0  300A               	movlw	10
  2883  05F1  00A0               	movwf	___awdiv@divisor
  2884  05F2  3000               	movlw	0
  2885  05F3  00A1               	movwf	___awdiv@divisor+1
  2886  05F4  0857               	movf	dispval1@vals+1,w
  2887  05F5  00A3               	movwf	___awdiv@dividend+1
  2888  05F6  0856               	movf	dispval1@vals,w
  2889  05F7  00A2               	movwf	___awdiv@dividend
  2890  05F8  120A  158A  212F  120A  118A  	fcall	___awdiv
  2891  05FD  1283               	bcf	3,5	;RP0=0, select bank0
  2892  05FE  1303               	bcf	3,6	;RP1=0, select bank0
  2893  05FF  0821               	movf	?___awdiv+1,w
  2894  0600  00D7               	movwf	dispval1@vals+1
  2895  0601  0820               	movf	?___awdiv,w
  2896  0602  00D6               	movwf	dispval1@vals
  2897  0603                     l3945:	
  2898                           
  2899                           ;LabLCDisp.c: 282:     dec1 = vals%10;
  2900  0603  300A               	movlw	10
  2901  0604  00A0               	movwf	___awmod@divisor
  2902  0605  3000               	movlw	0
  2903  0606  00A1               	movwf	___awmod@divisor+1
  2904  0607  0857               	movf	dispval1@vals+1,w
  2905  0608  00A3               	movwf	___awmod@dividend+1
  2906  0609  0856               	movf	dispval1@vals,w
  2907  060A  00A2               	movwf	___awmod@dividend
  2908  060B  120A  158A  20D4  120A  118A  	fcall	___awmod
  2909  0610  1283               	bcf	3,5	;RP0=0, select bank0
  2910  0611  1303               	bcf	3,6	;RP1=0, select bank0
  2911  0612  0821               	movf	?___awmod+1,w
  2912  0613  00D3               	movwf	dispval1@dec1+1
  2913  0614  0820               	movf	?___awmod,w
  2914  0615  00D2               	movwf	dispval1@dec1
  2915  0616                     l3947:	
  2916                           
  2917                           ;LabLCDisp.c: 283:     ent = vals/10;
  2918  0616  300A               	movlw	10
  2919  0617  00A0               	movwf	___awdiv@divisor
  2920  0618  3000               	movlw	0
  2921  0619  00A1               	movwf	___awdiv@divisor+1
  2922  061A  0857               	movf	dispval1@vals+1,w
  2923  061B  00A3               	movwf	___awdiv@dividend+1
  2924  061C  0856               	movf	dispval1@vals,w
  2925  061D  00A2               	movwf	___awdiv@dividend
  2926  061E  120A  158A  212F  120A  118A  	fcall	___awdiv
  2927  0623  1283               	bcf	3,5	;RP0=0, select bank0
  2928  0624  1303               	bcf	3,6	;RP1=0, select bank0
  2929  0625  0821               	movf	?___awdiv+1,w
  2930  0626  00D5               	movwf	dispval1@ent+1
  2931  0627  0820               	movf	?___awdiv,w
  2932  0628  00D4               	movwf	dispval1@ent
  2933                           
  2934                           ;LabLCDisp.c: 284:     switch (ent){
  2935  0629  2EC0               	goto	l3991
  2936  062A                     l3949:	
  2937                           
  2938                           ;LabLCDisp.c: 286:             lcd_cursor_set(2,1);
  2939  062A  01A2               	clrf	lcd_cursor_set@y
  2940  062B  0AA2               	incf	lcd_cursor_set@y,f
  2941  062C  3002               	movlw	2
  2942  062D  160A  118A  27B1  120A  118A  	fcall	_lcd_cursor_set
  2943  0632                     l3951:	
  2944                           
  2945                           ;LabLCDisp.c: 287:             lcd_wstring("0");
  2946  0632  3010               	movlw	(low ((STR_4-__stringbase)| (0+32768)))& (0+255)
  2947  0633  160A  118A  27D7  120A  118A  	fcall	_lcd_wstring
  2948                           
  2949                           ;LabLCDisp.c: 288:             break;
  2950  0638  2EE5               	goto	l3993
  2951  0639                     l3953:	
  2952                           
  2953                           ;LabLCDisp.c: 290:             lcd_cursor_set(2,1);
  2954  0639  01A2               	clrf	lcd_cursor_set@y
  2955  063A  0AA2               	incf	lcd_cursor_set@y,f
  2956  063B  3002               	movlw	2
  2957  063C  160A  118A  27B1  120A  118A  	fcall	_lcd_cursor_set
  2958  0641                     l3955:	
  2959                           
  2960                           ;LabLCDisp.c: 291:             lcd_wstring("1");
  2961  0641  3008               	movlw	(low (((STR_1+2)-__stringbase)| (0+32768)))& (0+255)
  2962  0642  160A  118A  27D7  120A  118A  	fcall	_lcd_wstring
  2963                           
  2964                           ;LabLCDisp.c: 292:             break;
  2965  0647  2EE5               	goto	l3993
  2966  0648                     l3957:	
  2967                           
  2968                           ;LabLCDisp.c: 294:             lcd_cursor_set(2,1);
  2969  0648  01A2               	clrf	lcd_cursor_set@y
  2970  0649  0AA2               	incf	lcd_cursor_set@y,f
  2971  064A  3002               	movlw	2
  2972  064B  160A  118A  27B1  120A  118A  	fcall	_lcd_cursor_set
  2973  0650                     l3959:	
  2974                           
  2975                           ;LabLCDisp.c: 295:             lcd_wstring("2");
  2976  0650  300C               	movlw	(low (((STR_2+2)-__stringbase)| (0+32768)))& (0+255)
  2977  0651  160A  118A  27D7  120A  118A  	fcall	_lcd_wstring
  2978                           
  2979                           ;LabLCDisp.c: 296:             break;
  2980  0656  2EE5               	goto	l3993
  2981  0657                     l3961:	
  2982                           
  2983                           ;LabLCDisp.c: 298:             lcd_cursor_set(2,1);
  2984  0657  01A2               	clrf	lcd_cursor_set@y
  2985  0658  0AA2               	incf	lcd_cursor_set@y,f
  2986  0659  3002               	movlw	2
  2987  065A  160A  118A  27B1  120A  118A  	fcall	_lcd_cursor_set
  2988  065F                     l3963:	
  2989                           
  2990                           ;LabLCDisp.c: 299:             lcd_wstring("3");
  2991  065F  3012               	movlw	(low ((STR_7-__stringbase)| (0+32768)))& (0+255)
  2992  0660  160A  118A  27D7  120A  118A  	fcall	_lcd_wstring
  2993                           
  2994                           ;LabLCDisp.c: 300:             break;
  2995  0665  2EE5               	goto	l3993
  2996  0666                     l3965:	
  2997                           
  2998                           ;LabLCDisp.c: 302:             lcd_cursor_set(2,1);
  2999  0666  01A2               	clrf	lcd_cursor_set@y
  3000  0667  0AA2               	incf	lcd_cursor_set@y,f
  3001  0668  3002               	movlw	2
  3002  0669  160A  118A  27B1  120A  118A  	fcall	_lcd_cursor_set
  3003  066E                     l3967:	
  3004                           
  3005                           ;LabLCDisp.c: 303:             lcd_wstring("4");
  3006  066E  3014               	movlw	(low ((STR_8-__stringbase)| (0+32768)))& (0+255)
  3007  066F  160A  118A  27D7  120A  118A  	fcall	_lcd_wstring
  3008                           
  3009                           ;LabLCDisp.c: 304:             break;
  3010  0674  2EE5               	goto	l3993
  3011  0675                     l3969:	
  3012                           
  3013                           ;LabLCDisp.c: 306:             lcd_cursor_set(2,1);
  3014  0675  01A2               	clrf	lcd_cursor_set@y
  3015  0676  0AA2               	incf	lcd_cursor_set@y,f
  3016  0677  3002               	movlw	2
  3017  0678  160A  118A  27B1  120A  118A  	fcall	_lcd_cursor_set
  3018  067D                     l3971:	
  3019                           
  3020                           ;LabLCDisp.c: 307:             lcd_wstring("5");
  3021  067D  3016               	movlw	(low ((STR_9-__stringbase)| (0+32768)))& (0+255)
  3022  067E  160A  118A  27D7  120A  118A  	fcall	_lcd_wstring
  3023                           
  3024                           ;LabLCDisp.c: 308:             break;
  3025  0683  2EE5               	goto	l3993
  3026  0684                     l3973:	
  3027                           
  3028                           ;LabLCDisp.c: 310:             lcd_cursor_set(2,1);
  3029  0684  01A2               	clrf	lcd_cursor_set@y
  3030  0685  0AA2               	incf	lcd_cursor_set@y,f
  3031  0686  3002               	movlw	2
  3032  0687  160A  118A  27B1  120A  118A  	fcall	_lcd_cursor_set
  3033  068C                     l3975:	
  3034                           
  3035                           ;LabLCDisp.c: 311:             lcd_wstring("6");
  3036  068C  3018               	movlw	(low ((STR_10-__stringbase)| (0+32768)))& (0+255)
  3037  068D  160A  118A  27D7  120A  118A  	fcall	_lcd_wstring
  3038                           
  3039                           ;LabLCDisp.c: 312:             break;
  3040  0692  2EE5               	goto	l3993
  3041  0693                     l3977:	
  3042                           
  3043                           ;LabLCDisp.c: 314:             lcd_cursor_set(2,1);
  3044  0693  01A2               	clrf	lcd_cursor_set@y
  3045  0694  0AA2               	incf	lcd_cursor_set@y,f
  3046  0695  3002               	movlw	2
  3047  0696  160A  118A  27B1  120A  118A  	fcall	_lcd_cursor_set
  3048  069B                     l3979:	
  3049                           
  3050                           ;LabLCDisp.c: 315:             lcd_wstring("7");
  3051  069B  301A               	movlw	(low ((STR_11-__stringbase)| (0+32768)))& (0+255)
  3052  069C  160A  118A  27D7  120A  118A  	fcall	_lcd_wstring
  3053                           
  3054                           ;LabLCDisp.c: 316:             break;
  3055  06A1  2EE5               	goto	l3993
  3056  06A2                     l3981:	
  3057                           
  3058                           ;LabLCDisp.c: 318:             lcd_cursor_set(2,1);
  3059  06A2  01A2               	clrf	lcd_cursor_set@y
  3060  06A3  0AA2               	incf	lcd_cursor_set@y,f
  3061  06A4  3002               	movlw	2
  3062  06A5  160A  118A  27B1  120A  118A  	fcall	_lcd_cursor_set
  3063  06AA                     l3983:	
  3064                           
  3065                           ;LabLCDisp.c: 319:             lcd_wstring("8");
  3066  06AA  301C               	movlw	(low ((STR_12-__stringbase)| (0+32768)))& (0+255)
  3067  06AB  160A  118A  27D7  120A  118A  	fcall	_lcd_wstring
  3068                           
  3069                           ;LabLCDisp.c: 320:             break;
  3070  06B0  2EE5               	goto	l3993
  3071  06B1                     l3985:	
  3072                           
  3073                           ;LabLCDisp.c: 322:             lcd_cursor_set(2,1);
  3074  06B1  01A2               	clrf	lcd_cursor_set@y
  3075  06B2  0AA2               	incf	lcd_cursor_set@y,f
  3076  06B3  3002               	movlw	2
  3077  06B4  160A  118A  27B1  120A  118A  	fcall	_lcd_cursor_set
  3078  06B9                     l3987:	
  3079                           
  3080                           ;LabLCDisp.c: 323:             lcd_wstring("9");
  3081  06B9  301E               	movlw	(low ((STR_13-__stringbase)| (0+32768)))& (0+255)
  3082  06BA  160A  118A  27D7  120A  118A  	fcall	_lcd_wstring
  3083                           
  3084                           ;LabLCDisp.c: 324:             break;
  3085  06BF  2EE5               	goto	l3993
  3086  06C0                     l3991:	
  3087                           
  3088                           ; Switch on 2 bytes has been partitioned into a top level switch of size 1, and 1 sub-sw
      +                          itches
  3089                           ; Switch size 1, requested type "simple"
  3090                           ; Number of cases is 1, Range of values is 0 to 0
  3091                           ; switch strategies available:
  3092                           ; Name         Instructions Cycles
  3093                           ; simple_byte            4     3 (average)
  3094                           ; direct_byte           11     8 (fixed)
  3095                           ; jumptable            260     6 (fixed)
  3096                           ;	Chosen strategy is simple_byte
  3097  06C0  0855               	movf	dispval1@ent+1,w
  3098  06C1  3A00               	xorlw	0	; case 0
  3099  06C2  1903               	skipnz
  3100  06C3  2EC5               	goto	l4627
  3101  06C4  2EE5               	goto	l3993
  3102  06C5                     l4627:	
  3103                           
  3104                           ; Switch size 1, requested type "simple"
  3105                           ; Number of cases is 10, Range of values is 0 to 9
  3106                           ; switch strategies available:
  3107                           ; Name         Instructions Cycles
  3108                           ; simple_byte           31    16 (average)
  3109                           ; direct_byte           38     8 (fixed)
  3110                           ; jumptable            260     6 (fixed)
  3111                           ;	Chosen strategy is simple_byte
  3112  06C5  0854               	movf	dispval1@ent,w
  3113  06C6  3A00               	xorlw	0	; case 0
  3114  06C7  1903               	skipnz
  3115  06C8  2E2A               	goto	l3949
  3116  06C9  3A01               	xorlw	1	; case 1
  3117  06CA  1903               	skipnz
  3118  06CB  2E39               	goto	l3953
  3119  06CC  3A03               	xorlw	3	; case 2
  3120  06CD  1903               	skipnz
  3121  06CE  2E48               	goto	l3957
  3122  06CF  3A01               	xorlw	1	; case 3
  3123  06D0  1903               	skipnz
  3124  06D1  2E57               	goto	l3961
  3125  06D2  3A07               	xorlw	7	; case 4
  3126  06D3  1903               	skipnz
  3127  06D4  2E66               	goto	l3965
  3128  06D5  3A01               	xorlw	1	; case 5
  3129  06D6  1903               	skipnz
  3130  06D7  2E75               	goto	l3969
  3131  06D8  3A03               	xorlw	3	; case 6
  3132  06D9  1903               	skipnz
  3133  06DA  2E84               	goto	l3973
  3134  06DB  3A01               	xorlw	1	; case 7
  3135  06DC  1903               	skipnz
  3136  06DD  2E93               	goto	l3977
  3137  06DE  3A0F               	xorlw	15	; case 8
  3138  06DF  1903               	skipnz
  3139  06E0  2EA2               	goto	l3981
  3140  06E1  3A01               	xorlw	1	; case 9
  3141  06E2  1903               	skipnz
  3142  06E3  2EB1               	goto	l3985
  3143  06E4  2EE5               	goto	l3993
  3144  06E5                     l3993:	
  3145                           
  3146                           ;LabLCDisp.c: 326:     lcd_wstring(".");
  3147  06E5  300E               	movlw	(low ((STR_44-__stringbase)| (0+32768)))& (0+255)
  3148  06E6  160A  118A  27D7  120A  118A  	fcall	_lcd_wstring
  3149                           
  3150                           ;LabLCDisp.c: 327:     switch (dec1){
  3151  06EB  2F32               	goto	l4017
  3152  06EC                     l3995:	
  3153                           
  3154                           ;LabLCDisp.c: 329:             lcd_wstring("0");
  3155  06EC  3010               	movlw	(low ((STR_4-__stringbase)| (0+32768)))& (0+255)
  3156  06ED  160A  118A  27D7  120A  118A  	fcall	_lcd_wstring
  3157                           
  3158                           ;LabLCDisp.c: 330:             break;
  3159  06F2  2F9F               	goto	l4041
  3160  06F3                     l3997:	
  3161                           
  3162                           ;LabLCDisp.c: 332:             lcd_wstring("1");
  3163  06F3  3008               	movlw	(low (((STR_1+2)-__stringbase)| (0+32768)))& (0+255)
  3164  06F4  160A  118A  27D7  120A  118A  	fcall	_lcd_wstring
  3165                           
  3166                           ;LabLCDisp.c: 333:             break;
  3167  06F9  2F9F               	goto	l4041
  3168  06FA                     l3999:	
  3169                           
  3170                           ;LabLCDisp.c: 335:             lcd_wstring("2");
  3171  06FA  300C               	movlw	(low (((STR_2+2)-__stringbase)| (0+32768)))& (0+255)
  3172  06FB  160A  118A  27D7  120A  118A  	fcall	_lcd_wstring
  3173                           
  3174                           ;LabLCDisp.c: 336:             break;
  3175  0700  2F9F               	goto	l4041
  3176  0701                     l4001:	
  3177                           
  3178                           ;LabLCDisp.c: 338:             lcd_wstring("3");
  3179  0701  3012               	movlw	(low ((STR_7-__stringbase)| (0+32768)))& (0+255)
  3180  0702  160A  118A  27D7  120A  118A  	fcall	_lcd_wstring
  3181                           
  3182                           ;LabLCDisp.c: 339:             break;
  3183  0707  2F9F               	goto	l4041
  3184  0708                     l4003:	
  3185                           
  3186                           ;LabLCDisp.c: 341:             lcd_wstring("4");
  3187  0708  3014               	movlw	(low ((STR_8-__stringbase)| (0+32768)))& (0+255)
  3188  0709  160A  118A  27D7  120A  118A  	fcall	_lcd_wstring
  3189                           
  3190                           ;LabLCDisp.c: 342:             break;
  3191  070E  2F9F               	goto	l4041
  3192  070F                     l4005:	
  3193                           
  3194                           ;LabLCDisp.c: 344:             lcd_wstring("5");
  3195  070F  3016               	movlw	(low ((STR_9-__stringbase)| (0+32768)))& (0+255)
  3196  0710  160A  118A  27D7  120A  118A  	fcall	_lcd_wstring
  3197                           
  3198                           ;LabLCDisp.c: 345:             break;
  3199  0715  2F9F               	goto	l4041
  3200  0716                     l4007:	
  3201                           
  3202                           ;LabLCDisp.c: 347:             lcd_wstring("6");
  3203  0716  3018               	movlw	(low ((STR_10-__stringbase)| (0+32768)))& (0+255)
  3204  0717  160A  118A  27D7  120A  118A  	fcall	_lcd_wstring
  3205                           
  3206                           ;LabLCDisp.c: 348:             break;
  3207  071C  2F9F               	goto	l4041
  3208  071D                     l4009:	
  3209                           
  3210                           ;LabLCDisp.c: 350:             lcd_wstring("7");
  3211  071D  301A               	movlw	(low ((STR_11-__stringbase)| (0+32768)))& (0+255)
  3212  071E  160A  118A  27D7  120A  118A  	fcall	_lcd_wstring
  3213                           
  3214                           ;LabLCDisp.c: 351:             break;
  3215  0723  2F9F               	goto	l4041
  3216  0724                     l4011:	
  3217                           
  3218                           ;LabLCDisp.c: 353:             lcd_wstring("8");
  3219  0724  301C               	movlw	(low ((STR_12-__stringbase)| (0+32768)))& (0+255)
  3220  0725  160A  118A  27D7  120A  118A  	fcall	_lcd_wstring
  3221                           
  3222                           ;LabLCDisp.c: 354:             break;
  3223  072A  2F9F               	goto	l4041
  3224  072B                     l4013:	
  3225                           
  3226                           ;LabLCDisp.c: 356:             lcd_wstring("9");
  3227  072B  301E               	movlw	(low ((STR_13-__stringbase)| (0+32768)))& (0+255)
  3228  072C  160A  118A  27D7  120A  118A  	fcall	_lcd_wstring
  3229                           
  3230                           ;LabLCDisp.c: 357:             break;
  3231  0731  2F9F               	goto	l4041
  3232  0732                     l4017:	
  3233                           
  3234                           ; Switch on 2 bytes has been partitioned into a top level switch of size 1, and 1 sub-sw
      +                          itches
  3235                           ; Switch size 1, requested type "simple"
  3236                           ; Number of cases is 1, Range of values is 0 to 0
  3237                           ; switch strategies available:
  3238                           ; Name         Instructions Cycles
  3239                           ; simple_byte            4     3 (average)
  3240                           ; direct_byte           11     8 (fixed)
  3241                           ; jumptable            260     6 (fixed)
  3242                           ;	Chosen strategy is simple_byte
  3243  0732  1283               	bcf	3,5	;RP0=0, select bank0
  3244  0733  1303               	bcf	3,6	;RP1=0, select bank0
  3245  0734  0853               	movf	dispval1@dec1+1,w
  3246  0735  3A00               	xorlw	0	; case 0
  3247  0736  1903               	skipnz
  3248  0737  2F39               	goto	l4629
  3249  0738  2F9F               	goto	l4041
  3250  0739                     l4629:	
  3251                           
  3252                           ; Switch size 1, requested type "simple"
  3253                           ; Number of cases is 10, Range of values is 0 to 9
  3254                           ; switch strategies available:
  3255                           ; Name         Instructions Cycles
  3256                           ; simple_byte           31    16 (average)
  3257                           ; direct_byte           38     8 (fixed)
  3258                           ; jumptable            260     6 (fixed)
  3259                           ;	Chosen strategy is simple_byte
  3260  0739  0852               	movf	dispval1@dec1,w
  3261  073A  3A00               	xorlw	0	; case 0
  3262  073B  1903               	skipnz
  3263  073C  2EEC               	goto	l3995
  3264  073D  3A01               	xorlw	1	; case 1
  3265  073E  1903               	skipnz
  3266  073F  2EF3               	goto	l3997
  3267  0740  3A03               	xorlw	3	; case 2
  3268  0741  1903               	skipnz
  3269  0742  2EFA               	goto	l3999
  3270  0743  3A01               	xorlw	1	; case 3
  3271  0744  1903               	skipnz
  3272  0745  2F01               	goto	l4001
  3273  0746  3A07               	xorlw	7	; case 4
  3274  0747  1903               	skipnz
  3275  0748  2F08               	goto	l4003
  3276  0749  3A01               	xorlw	1	; case 5
  3277  074A  1903               	skipnz
  3278  074B  2F0F               	goto	l4005
  3279  074C  3A03               	xorlw	3	; case 6
  3280  074D  1903               	skipnz
  3281  074E  2F16               	goto	l4007
  3282  074F  3A01               	xorlw	1	; case 7
  3283  0750  1903               	skipnz
  3284  0751  2F1D               	goto	l4009
  3285  0752  3A0F               	xorlw	15	; case 8
  3286  0753  1903               	skipnz
  3287  0754  2F24               	goto	l4011
  3288  0755  3A01               	xorlw	1	; case 9
  3289  0756  1903               	skipnz
  3290  0757  2F2B               	goto	l4013
  3291  0758  2F9F               	goto	l4041
  3292  0759                     l4019:	
  3293                           
  3294                           ;LabLCDisp.c: 361:             lcd_wstring("0");
  3295  0759  3010               	movlw	(low ((STR_4-__stringbase)| (0+32768)))& (0+255)
  3296  075A  160A  118A  27D7  120A  118A  	fcall	_lcd_wstring
  3297                           
  3298                           ;LabLCDisp.c: 362:             break;
  3299  075F  2FC6               	goto	l4043
  3300  0760                     l4021:	
  3301                           
  3302                           ;LabLCDisp.c: 364:             lcd_wstring("1");
  3303  0760  3008               	movlw	(low (((STR_1+2)-__stringbase)| (0+32768)))& (0+255)
  3304  0761  160A  118A  27D7  120A  118A  	fcall	_lcd_wstring
  3305                           
  3306                           ;LabLCDisp.c: 365:             break;
  3307  0766  2FC6               	goto	l4043
  3308  0767                     l4023:	
  3309                           
  3310                           ;LabLCDisp.c: 367:             lcd_wstring("2");
  3311  0767  300C               	movlw	(low (((STR_2+2)-__stringbase)| (0+32768)))& (0+255)
  3312  0768  160A  118A  27D7  120A  118A  	fcall	_lcd_wstring
  3313                           
  3314                           ;LabLCDisp.c: 368:             break;
  3315  076D  2FC6               	goto	l4043
  3316  076E                     l4025:	
  3317                           
  3318                           ;LabLCDisp.c: 370:             lcd_wstring("3");
  3319  076E  3012               	movlw	(low ((STR_7-__stringbase)| (0+32768)))& (0+255)
  3320  076F  160A  118A  27D7  120A  118A  	fcall	_lcd_wstring
  3321                           
  3322                           ;LabLCDisp.c: 371:             break;
  3323  0774  2FC6               	goto	l4043
  3324  0775                     l4027:	
  3325                           
  3326                           ;LabLCDisp.c: 373:             lcd_wstring("4");
  3327  0775  3014               	movlw	(low ((STR_8-__stringbase)| (0+32768)))& (0+255)
  3328  0776  160A  118A  27D7  120A  118A  	fcall	_lcd_wstring
  3329                           
  3330                           ;LabLCDisp.c: 374:             break;
  3331  077B  2FC6               	goto	l4043
  3332  077C                     l4029:	
  3333                           
  3334                           ;LabLCDisp.c: 376:             lcd_wstring("5");
  3335  077C  3016               	movlw	(low ((STR_9-__stringbase)| (0+32768)))& (0+255)
  3336  077D  160A  118A  27D7  120A  118A  	fcall	_lcd_wstring
  3337                           
  3338                           ;LabLCDisp.c: 377:             break;
  3339  0782  2FC6               	goto	l4043
  3340  0783                     l4031:	
  3341                           
  3342                           ;LabLCDisp.c: 379:             lcd_wstring("6");
  3343  0783  3018               	movlw	(low ((STR_10-__stringbase)| (0+32768)))& (0+255)
  3344  0784  160A  118A  27D7  120A  118A  	fcall	_lcd_wstring
  3345                           
  3346                           ;LabLCDisp.c: 380:             break;
  3347  0789  2FC6               	goto	l4043
  3348  078A                     l4033:	
  3349                           
  3350                           ;LabLCDisp.c: 382:             lcd_wstring("7");
  3351  078A  301A               	movlw	(low ((STR_11-__stringbase)| (0+32768)))& (0+255)
  3352  078B  160A  118A  27D7  120A  118A  	fcall	_lcd_wstring
  3353                           
  3354                           ;LabLCDisp.c: 383:             break;
  3355  0790  2FC6               	goto	l4043
  3356  0791                     l4035:	
  3357                           
  3358                           ;LabLCDisp.c: 385:             lcd_wstring("8");
  3359  0791  301C               	movlw	(low ((STR_12-__stringbase)| (0+32768)))& (0+255)
  3360  0792  160A  118A  27D7  120A  118A  	fcall	_lcd_wstring
  3361                           
  3362                           ;LabLCDisp.c: 386:             break;
  3363  0797  2FC6               	goto	l4043
  3364  0798                     l4037:	
  3365                           
  3366                           ;LabLCDisp.c: 388:             lcd_wstring("9");
  3367  0798  301E               	movlw	(low ((STR_13-__stringbase)| (0+32768)))& (0+255)
  3368  0799  160A  118A  27D7  120A  118A  	fcall	_lcd_wstring
  3369                           
  3370                           ;LabLCDisp.c: 389:             break;
  3371  079E  2FC6               	goto	l4043
  3372  079F                     l4041:	
  3373                           
  3374                           ; Switch on 2 bytes has been partitioned into a top level switch of size 1, and 1 sub-sw
      +                          itches
  3375                           ; Switch size 1, requested type "simple"
  3376                           ; Number of cases is 1, Range of values is 0 to 0
  3377                           ; switch strategies available:
  3378                           ; Name         Instructions Cycles
  3379                           ; simple_byte            4     3 (average)
  3380                           ; direct_byte           11     8 (fixed)
  3381                           ; jumptable            260     6 (fixed)
  3382                           ;	Chosen strategy is simple_byte
  3383  079F  1283               	bcf	3,5	;RP0=0, select bank0
  3384  07A0  1303               	bcf	3,6	;RP1=0, select bank0
  3385  07A1  0851               	movf	dispval1@dec2+1,w
  3386  07A2  3A00               	xorlw	0	; case 0
  3387  07A3  1903               	skipnz
  3388  07A4  2FA6               	goto	l4631
  3389  07A5  2FC6               	goto	l4043
  3390  07A6                     l4631:	
  3391                           
  3392                           ; Switch size 1, requested type "simple"
  3393                           ; Number of cases is 10, Range of values is 0 to 9
  3394                           ; switch strategies available:
  3395                           ; Name         Instructions Cycles
  3396                           ; simple_byte           31    16 (average)
  3397                           ; direct_byte           38     8 (fixed)
  3398                           ; jumptable            260     6 (fixed)
  3399                           ;	Chosen strategy is simple_byte
  3400  07A6  0850               	movf	dispval1@dec2,w
  3401  07A7  3A00               	xorlw	0	; case 0
  3402  07A8  1903               	skipnz
  3403  07A9  2F59               	goto	l4019
  3404  07AA  3A01               	xorlw	1	; case 1
  3405  07AB  1903               	skipnz
  3406  07AC  2F60               	goto	l4021
  3407  07AD  3A03               	xorlw	3	; case 2
  3408  07AE  1903               	skipnz
  3409  07AF  2F67               	goto	l4023
  3410  07B0  3A01               	xorlw	1	; case 3
  3411  07B1  1903               	skipnz
  3412  07B2  2F6E               	goto	l4025
  3413  07B3  3A07               	xorlw	7	; case 4
  3414  07B4  1903               	skipnz
  3415  07B5  2F75               	goto	l4027
  3416  07B6  3A01               	xorlw	1	; case 5
  3417  07B7  1903               	skipnz
  3418  07B8  2F7C               	goto	l4029
  3419  07B9  3A03               	xorlw	3	; case 6
  3420  07BA  1903               	skipnz
  3421  07BB  2F83               	goto	l4031
  3422  07BC  3A01               	xorlw	1	; case 7
  3423  07BD  1903               	skipnz
  3424  07BE  2F8A               	goto	l4033
  3425  07BF  3A0F               	xorlw	15	; case 8
  3426  07C0  1903               	skipnz
  3427  07C1  2F91               	goto	l4035
  3428  07C2  3A01               	xorlw	1	; case 9
  3429  07C3  1903               	skipnz
  3430  07C4  2F98               	goto	l4037
  3431  07C5  2FC6               	goto	l4043
  3432  07C6                     l4043:	
  3433                           
  3434                           ;LabLCDisp.c: 391:     lcd_wstring("V");
  3435  07C6  3020               	movlw	(low ((STR_65-__stringbase)| (0+32768)))& (0+255)
  3436  07C7  160A  118A  27D7  120A  118A  	fcall	_lcd_wstring
  3437  07CC                     l268:	
  3438  07CC  0008               	return
  3439  07CD                     __end_of_dispval1:	
  3440                           
  3441                           	psect	text8
  3442  0A10                     __ptext8:	
  3443 ;; *************** function ___fltol *****************
  3444 ;; Defined at:
  3445 ;;		line 43 in file "C:\Program Files (x86)\Microchip\xc8\v2.10\pic\sources\c90\common\fltol.c"
  3446 ;; Parameters:    Size  Location     Type
  3447 ;;  f1              4   33[BANK0 ] void 
  3448 ;; Auto vars:     Size  Location     Type
  3449 ;;  exp1            1   43[BANK0 ] unsigned char 
  3450 ;;  sign1           1   42[BANK0 ] unsigned char 
  3451 ;; Return value:  Size  Location     Type
  3452 ;;                  4   33[BANK0 ] long 
  3453 ;; Registers used:
  3454 ;;		wreg, status,2, status,0
  3455 ;; Tracked objects:
  3456 ;;		On entry : 0/0
  3457 ;;		On exit  : 0/0
  3458 ;;		Unchanged: 0/0
  3459 ;; Data sizes:     COMMON   BANK0   BANK1   BANK3   BANK2
  3460 ;;      Params:         0       4       0       0       0
  3461 ;;      Locals:         0       2       0       0       0
  3462 ;;      Temps:          0       5       0       0       0
  3463 ;;      Totals:         0      11       0       0       0
  3464 ;;Total ram usage:       11 bytes
  3465 ;; Hardware stack levels used:    1
  3466 ;; Hardware stack levels required when called:    1
  3467 ;; This function calls:
  3468 ;;		Nothing
  3469 ;; This function is called by:
  3470 ;;		_dispval1
  3471 ;;		_dispval2
  3472 ;; This function uses a non-reentrant model
  3473 ;;
  3474                           
  3475                           
  3476                           ;psect for function ___fltol
  3477  0A10                     ___fltol:	
  3478  0A10                     l2433:	
  3479                           ;incstack = 0
  3480                           ; Regs used in ___fltol: [wreg+status,2+status,0]
  3481                           
  3482  0A10  1003               	clrc
  3483  0A11  1283               	bcf	3,5	;RP0=0, select bank0
  3484  0A12  1303               	bcf	3,6	;RP1=0, select bank0
  3485  0A13  0D43               	rlf	___fltol@f1+2,w
  3486  0A14  0D44               	rlf	___fltol@f1+3,w
  3487  0A15  00C5               	movwf	??___fltol
  3488  0A16  0845               	movf	??___fltol,w
  3489  0A17  00CB               	movwf	___fltol@exp1
  3490  0A18  084B               	movf	___fltol@exp1,w
  3491  0A19  1D03               	btfss	3,2
  3492  0A1A  2A1C               	goto	u1641
  3493  0A1B  2A1D               	goto	u1640
  3494  0A1C                     u1641:	
  3495  0A1C  2A26               	goto	l2439
  3496  0A1D                     u1640:	
  3497  0A1D                     l2435:	
  3498  0A1D  3000               	movlw	0
  3499  0A1E  00C4               	movwf	?___fltol+3
  3500  0A1F  3000               	movlw	0
  3501  0A20  00C3               	movwf	?___fltol+2
  3502  0A21  3000               	movlw	0
  3503  0A22  00C2               	movwf	?___fltol+1
  3504  0A23  3000               	movlw	0
  3505  0A24  00C1               	movwf	?___fltol
  3506  0A25  2A8B               	goto	l625
  3507  0A26                     l2439:	
  3508  0A26  0841               	movf	___fltol@f1,w
  3509  0A27  00C5               	movwf	??___fltol
  3510  0A28  0842               	movf	___fltol@f1+1,w
  3511  0A29  00C6               	movwf	??___fltol+1
  3512  0A2A  0843               	movf	___fltol@f1+2,w
  3513  0A2B  00C7               	movwf	??___fltol+2
  3514  0A2C  0844               	movf	___fltol@f1+3,w
  3515  0A2D  00C8               	movwf	??___fltol+3
  3516  0A2E  301F               	movlw	31
  3517  0A2F                     u1655:	
  3518  0A2F  1003               	clrc
  3519  0A30  0CC8               	rrf	??___fltol+3,f
  3520  0A31  0CC7               	rrf	??___fltol+2,f
  3521  0A32  0CC6               	rrf	??___fltol+1,f
  3522  0A33  0CC5               	rrf	??___fltol,f
  3523  0A34                     u1650:	
  3524  0A34  3EFF               	addlw	-1
  3525  0A35  1D03               	skipz
  3526  0A36  2A2F               	goto	u1655
  3527  0A37  0845               	movf	??___fltol,w
  3528  0A38  00C9               	movwf	??___fltol+4
  3529  0A39  0849               	movf	??___fltol+4,w
  3530  0A3A  00CA               	movwf	___fltol@sign1
  3531  0A3B                     l2441:	
  3532  0A3B  17C3               	bsf	___fltol@f1+2,7
  3533  0A3C                     l2443:	
  3534  0A3C  30FF               	movlw	255
  3535  0A3D  05C1               	andwf	___fltol@f1,f
  3536  0A3E  30FF               	movlw	255
  3537  0A3F  05C2               	andwf	___fltol@f1+1,f
  3538  0A40  30FF               	movlw	255
  3539  0A41  05C3               	andwf	___fltol@f1+2,f
  3540  0A42  3000               	movlw	0
  3541  0A43  05C4               	andwf	___fltol@f1+3,f
  3542  0A44                     l2445:	
  3543  0A44  3096               	movlw	150
  3544  0A45  02CB               	subwf	___fltol@exp1,f
  3545  0A46                     l2447:	
  3546  0A46  1FCB               	btfss	___fltol@exp1,7
  3547  0A47  2A49               	goto	u1661
  3548  0A48  2A4A               	goto	u1660
  3549  0A49                     u1661:	
  3550  0A49  2A64               	goto	l2457
  3551  0A4A                     u1660:	
  3552  0A4A                     l2449:	
  3553  0A4A  084B               	movf	___fltol@exp1,w
  3554  0A4B  3A80               	xorlw	128
  3555  0A4C  3E97               	addlw	151
  3556  0A4D  1803               	skipnc
  3557  0A4E  2A50               	goto	u1671
  3558  0A4F  2A51               	goto	u1670
  3559  0A50                     u1671:	
  3560  0A50  2A52               	goto	l2455
  3561  0A51                     u1670:	
  3562  0A51  2A1D               	goto	l2435
  3563  0A52                     l2455:	
  3564  0A52  3001               	movlw	1
  3565  0A53                     u1685:	
  3566  0A53  1003               	clrc
  3567  0A54  0CC4               	rrf	___fltol@f1+3,f
  3568  0A55  0CC3               	rrf	___fltol@f1+2,f
  3569  0A56  0CC2               	rrf	___fltol@f1+1,f
  3570  0A57  0CC1               	rrf	___fltol@f1,f
  3571  0A58  3EFF               	addlw	-1
  3572  0A59  1D03               	skipz
  3573  0A5A  2A53               	goto	u1685
  3574  0A5B  3001               	movlw	1
  3575  0A5C  00C5               	movwf	??___fltol
  3576  0A5D  0845               	movf	??___fltol,w
  3577  0A5E  07CB               	addwf	___fltol@exp1,f
  3578  0A5F  1D03               	btfss	3,2
  3579  0A60  2A62               	goto	u1691
  3580  0A61  2A63               	goto	u1690
  3581  0A62                     u1691:	
  3582  0A62  2A52               	goto	l2455
  3583  0A63                     u1690:	
  3584  0A63  2A7B               	goto	l2465
  3585  0A64                     l2457:	
  3586  0A64  3020               	movlw	32
  3587  0A65  024B               	subwf	___fltol@exp1,w
  3588  0A66  1C03               	skipc
  3589  0A67  2A69               	goto	u1701
  3590  0A68  2A6A               	goto	u1700
  3591  0A69                     u1701:	
  3592  0A69  2A76               	goto	l632
  3593  0A6A                     u1700:	
  3594  0A6A  2A1D               	goto	l2435
  3595  0A6B                     l2463:	
  3596  0A6B  3001               	movlw	1
  3597  0A6C  00C5               	movwf	??___fltol
  3598  0A6D                     u1715:	
  3599  0A6D  1003               	clrc
  3600  0A6E  0DC1               	rlf	___fltol@f1,f
  3601  0A6F  0DC2               	rlf	___fltol@f1+1,f
  3602  0A70  0DC3               	rlf	___fltol@f1+2,f
  3603  0A71  0DC4               	rlf	___fltol@f1+3,f
  3604  0A72  0BC5               	decfsz	??___fltol,f
  3605  0A73  2A6D               	goto	u1715
  3606  0A74  3001               	movlw	1
  3607  0A75  02CB               	subwf	___fltol@exp1,f
  3608  0A76                     l632:	
  3609  0A76  084B               	movf	___fltol@exp1,w
  3610  0A77  1D03               	btfss	3,2
  3611  0A78  2A7A               	goto	u1721
  3612  0A79  2A7B               	goto	u1720
  3613  0A7A                     u1721:	
  3614  0A7A  2A6B               	goto	l2463
  3615  0A7B                     u1720:	
  3616  0A7B                     l2465:	
  3617  0A7B  084A               	movf	___fltol@sign1,w
  3618  0A7C  1903               	btfsc	3,2
  3619  0A7D  2A7F               	goto	u1731
  3620  0A7E  2A80               	goto	u1730
  3621  0A7F                     u1731:	
  3622  0A7F  2A8B               	goto	l635
  3623  0A80                     u1730:	
  3624  0A80                     l2467:	
  3625  0A80  09C1               	comf	___fltol@f1,f
  3626  0A81  09C2               	comf	___fltol@f1+1,f
  3627  0A82  09C3               	comf	___fltol@f1+2,f
  3628  0A83  09C4               	comf	___fltol@f1+3,f
  3629  0A84  0AC1               	incf	___fltol@f1,f
  3630  0A85  1903               	skipnz
  3631  0A86  0AC2               	incf	___fltol@f1+1,f
  3632  0A87  1903               	skipnz
  3633  0A88  0AC3               	incf	___fltol@f1+2,f
  3634  0A89  1903               	skipnz
  3635  0A8A  0AC4               	incf	___fltol@f1+3,f
  3636  0A8B                     l635:	
  3637  0A8B                     l625:	
  3638  0A8B  0008               	return
  3639  0A8C                     __end_of___fltol:	
  3640                           
  3641                           	psect	text9
  3642  0020                     __ptext9:	
  3643 ;; *************** function ___flmul *****************
  3644 ;; Defined at:
  3645 ;;		line 8 in file "C:\Program Files (x86)\Microchip\xc8\v2.10\pic\sources\c90\common\sprcmul.c"
  3646 ;; Parameters:    Size  Location     Type
  3647 ;;  b               4    7[BANK0 ] long 
  3648 ;;  a               4   11[BANK0 ] long 
  3649 ;; Auto vars:     Size  Location     Type
  3650 ;;  prod            4   27[BANK0 ] struct .
  3651 ;;  grs             4   22[BANK0 ] unsigned long 
  3652 ;;  temp            2   31[BANK0 ] struct .
  3653 ;;  bexp            1   26[BANK0 ] unsigned char 
  3654 ;;  aexp            1   21[BANK0 ] unsigned char 
  3655 ;;  sign            1   20[BANK0 ] unsigned char 
  3656 ;; Return value:  Size  Location     Type
  3657 ;;                  4    7[BANK0 ] unsigned char 
  3658 ;; Registers used:
  3659 ;;		wreg, status,2, status,0, btemp+1, pclath, cstack
  3660 ;; Tracked objects:
  3661 ;;		On entry : 0/0
  3662 ;;		On exit  : 0/0
  3663 ;;		Unchanged: 0/0
  3664 ;; Data sizes:     COMMON   BANK0   BANK1   BANK3   BANK2
  3665 ;;      Params:         0       8       0       0       0
  3666 ;;      Locals:         0      13       0       0       0
  3667 ;;      Temps:          0       5       0       0       0
  3668 ;;      Totals:         0      26       0       0       0
  3669 ;;Total ram usage:       26 bytes
  3670 ;; Hardware stack levels used:    1
  3671 ;; Hardware stack levels required when called:    2
  3672 ;; This function calls:
  3673 ;;		__Umul8_16
  3674 ;; This function is called by:
  3675 ;;		_dispval1
  3676 ;;		_dispval2
  3677 ;; This function uses a non-reentrant model
  3678 ;;
  3679                           
  3680                           
  3681                           ;psect for function ___flmul
  3682  0020                     ___flmul:	
  3683  0020                     l3739:	
  3684                           ;incstack = 0
  3685                           ; Regs used in ___flmul: [wreg+status,2+status,0+btemp+1+pclath+cstack]
  3686                           
  3687  0020  1283               	bcf	3,5	;RP0=0, select bank0
  3688  0021  1303               	bcf	3,6	;RP1=0, select bank0
  3689  0022  082A               	movf	___flmul@b+3,w
  3690  0023  3980               	andlw	128
  3691  0024  00AF               	movwf	??___flmul
  3692  0025  082F               	movf	??___flmul,w
  3693  0026  00B4               	movwf	___flmul@sign
  3694  0027                     l3741:	
  3695  0027  082A               	movf	___flmul@b+3,w
  3696  0028  00AF               	movwf	??___flmul
  3697  0029  072F               	addwf	??___flmul,w
  3698  002A  00B0               	movwf	??___flmul+1
  3699  002B  0830               	movf	??___flmul+1,w
  3700  002C  00BA               	movwf	___flmul@bexp
  3701  002D                     l3743:	
  3702  002D  1FA9               	btfss	___flmul@b+2,7
  3703  002E  2830               	goto	u2941
  3704  002F  2831               	goto	u2940
  3705  0030                     u2941:	
  3706  0030  2832               	goto	l3747
  3707  0031                     u2940:	
  3708  0031                     l3745:	
  3709  0031  143A               	bsf	___flmul@bexp,0
  3710  0032                     l3747:	
  3711  0032  083A               	movf	___flmul@bexp,w
  3712  0033  1903               	btfsc	3,2
  3713  0034  2836               	goto	u2951
  3714  0035  2837               	goto	u2950
  3715  0036                     u2951:	
  3716  0036  2846               	goto	l3755
  3717  0037                     u2950:	
  3718  0037                     l3749:	
  3719  0037  0A3A               	incf	___flmul@bexp,w
  3720  0038  1D03               	btfss	3,2
  3721  0039  283B               	goto	u2961
  3722  003A  283C               	goto	u2960
  3723  003B                     u2961:	
  3724  003B  2844               	goto	l3753
  3725  003C                     u2960:	
  3726  003C                     l3751:	
  3727  003C  3000               	movlw	0
  3728  003D  00AA               	movwf	___flmul@b+3
  3729  003E  3000               	movlw	0
  3730  003F  00A9               	movwf	___flmul@b+2
  3731  0040  3000               	movlw	0
  3732  0041  00A8               	movwf	___flmul@b+1
  3733  0042  3000               	movlw	0
  3734  0043  00A7               	movwf	___flmul@b
  3735  0044                     l3753:	
  3736  0044  17A9               	bsf	___flmul@b+2,7
  3737  0045  284E               	goto	l3757
  3738  0046                     l3755:	
  3739  0046  3000               	movlw	0
  3740  0047  00AA               	movwf	___flmul@b+3
  3741  0048  3000               	movlw	0
  3742  0049  00A9               	movwf	___flmul@b+2
  3743  004A  3000               	movlw	0
  3744  004B  00A8               	movwf	___flmul@b+1
  3745  004C  3000               	movlw	0
  3746  004D  00A7               	movwf	___flmul@b
  3747  004E                     l3757:	
  3748  004E  082E               	movf	___flmul@a+3,w
  3749  004F  3980               	andlw	128
  3750  0050  00AF               	movwf	??___flmul
  3751  0051  082F               	movf	??___flmul,w
  3752  0052  06B4               	xorwf	___flmul@sign,f
  3753  0053                     l3759:	
  3754  0053  082E               	movf	___flmul@a+3,w
  3755  0054  00AF               	movwf	??___flmul
  3756  0055  072F               	addwf	??___flmul,w
  3757  0056  00B0               	movwf	??___flmul+1
  3758  0057  0830               	movf	??___flmul+1,w
  3759  0058  00B5               	movwf	___flmul@aexp
  3760  0059                     l3761:	
  3761  0059  1FAD               	btfss	___flmul@a+2,7
  3762  005A  285C               	goto	u2971
  3763  005B  285D               	goto	u2970
  3764  005C                     u2971:	
  3765  005C  285E               	goto	l3765
  3766  005D                     u2970:	
  3767  005D                     l3763:	
  3768  005D  1435               	bsf	___flmul@aexp,0
  3769  005E                     l3765:	
  3770  005E  0835               	movf	___flmul@aexp,w
  3771  005F  1903               	btfsc	3,2
  3772  0060  2862               	goto	u2981
  3773  0061  2863               	goto	u2980
  3774  0062                     u2981:	
  3775  0062  2872               	goto	l3773
  3776  0063                     u2980:	
  3777  0063                     l3767:	
  3778  0063  0A35               	incf	___flmul@aexp,w
  3779  0064  1D03               	btfss	3,2
  3780  0065  2867               	goto	u2991
  3781  0066  2868               	goto	u2990
  3782  0067                     u2991:	
  3783  0067  2870               	goto	l3771
  3784  0068                     u2990:	
  3785  0068                     l3769:	
  3786  0068  3000               	movlw	0
  3787  0069  00AE               	movwf	___flmul@a+3
  3788  006A  3000               	movlw	0
  3789  006B  00AD               	movwf	___flmul@a+2
  3790  006C  3000               	movlw	0
  3791  006D  00AC               	movwf	___flmul@a+1
  3792  006E  3000               	movlw	0
  3793  006F  00AB               	movwf	___flmul@a
  3794  0070                     l3771:	
  3795  0070  17AD               	bsf	___flmul@a+2,7
  3796  0071  287A               	goto	l3775
  3797  0072                     l3773:	
  3798  0072  3000               	movlw	0
  3799  0073  00AE               	movwf	___flmul@a+3
  3800  0074  3000               	movlw	0
  3801  0075  00AD               	movwf	___flmul@a+2
  3802  0076  3000               	movlw	0
  3803  0077  00AC               	movwf	___flmul@a+1
  3804  0078  3000               	movlw	0
  3805  0079  00AB               	movwf	___flmul@a
  3806  007A                     l3775:	
  3807  007A  0835               	movf	___flmul@aexp,w
  3808  007B  1903               	btfsc	3,2
  3809  007C  287E               	goto	u3001
  3810  007D  287F               	goto	u3000
  3811  007E                     u3001:	
  3812  007E  2884               	goto	l3779
  3813  007F                     u3000:	
  3814  007F                     l3777:	
  3815  007F  083A               	movf	___flmul@bexp,w
  3816  0080  1D03               	btfss	3,2
  3817  0081  2883               	goto	u3011
  3818  0082  2884               	goto	u3010
  3819  0083                     u3011:	
  3820  0083  288D               	goto	l3783
  3821  0084                     u3010:	
  3822  0084                     l3779:	
  3823  0084  3000               	movlw	0
  3824  0085  00AA               	movwf	?___flmul+3
  3825  0086  3000               	movlw	0
  3826  0087  00A9               	movwf	?___flmul+2
  3827  0088  3000               	movlw	0
  3828  0089  00A8               	movwf	?___flmul+1
  3829  008A  3000               	movlw	0
  3830  008B  00A7               	movwf	?___flmul
  3831  008C  2B80               	goto	l828
  3832  008D                     l3783:	
  3833  008D  0827               	movf	___flmul@b,w
  3834  008E  00AF               	movwf	??___flmul
  3835  008F  082F               	movf	??___flmul,w
  3836  0090  00F5               	movwf	__Umul8_16@multiplicand
  3837  0091  082D               	movf	___flmul@a+2,w
  3838  0092  120A  118A  27CD  120A  118A  	fcall	__Umul8_16
  3839  0097  0876               	movf	?__Umul8_16+1,w
  3840  0098  1283               	bcf	3,5	;RP0=0, select bank0
  3841  0099  1303               	bcf	3,6	;RP1=0, select bank0
  3842  009A  00C0               	movwf	___flmul@temp+1
  3843  009B  0875               	movf	?__Umul8_16,w
  3844  009C  00BF               	movwf	___flmul@temp
  3845  009D                     l3785:	
  3846  009D  083F               	movf	___flmul@temp,w
  3847  009E  00AF               	movwf	??___flmul
  3848  009F  01B0               	clrf	??___flmul+1
  3849  00A0  01B1               	clrf	??___flmul+2
  3850  00A1  01B2               	clrf	??___flmul+3
  3851  00A2  0832               	movf	??___flmul+3,w
  3852  00A3  00B9               	movwf	___flmul@grs+3
  3853  00A4  0831               	movf	??___flmul+2,w
  3854  00A5  00B8               	movwf	___flmul@grs+2
  3855  00A6  0830               	movf	??___flmul+1,w
  3856  00A7  00B7               	movwf	___flmul@grs+1
  3857  00A8  082F               	movf	??___flmul,w
  3858  00A9  00B6               	movwf	___flmul@grs
  3859  00AA                     l3787:	
  3860  00AA  0840               	movf	___flmul@temp+1,w
  3861  00AB  00AF               	movwf	??___flmul
  3862  00AC  01B0               	clrf	??___flmul+1
  3863  00AD  01B1               	clrf	??___flmul+2
  3864  00AE  01B2               	clrf	??___flmul+3
  3865  00AF  0832               	movf	??___flmul+3,w
  3866  00B0  00BE               	movwf	___flmul@prod+3
  3867  00B1  0831               	movf	??___flmul+2,w
  3868  00B2  00BD               	movwf	___flmul@prod+2
  3869  00B3  0830               	movf	??___flmul+1,w
  3870  00B4  00BC               	movwf	___flmul@prod+1
  3871  00B5  082F               	movf	??___flmul,w
  3872  00B6  00BB               	movwf	___flmul@prod
  3873  00B7  0828               	movf	___flmul@b+1,w
  3874  00B8  00AF               	movwf	??___flmul
  3875  00B9  082F               	movf	??___flmul,w
  3876  00BA  00F5               	movwf	__Umul8_16@multiplicand
  3877  00BB  082C               	movf	___flmul@a+1,w
  3878  00BC  120A  118A  27CD  120A  118A  	fcall	__Umul8_16
  3879  00C1  0876               	movf	?__Umul8_16+1,w
  3880  00C2  1283               	bcf	3,5	;RP0=0, select bank0
  3881  00C3  1303               	bcf	3,6	;RP1=0, select bank0
  3882  00C4  00C0               	movwf	___flmul@temp+1
  3883  00C5  0875               	movf	?__Umul8_16,w
  3884  00C6  00BF               	movwf	___flmul@temp
  3885  00C7                     l3789:	
  3886  00C7  083F               	movf	___flmul@temp,w
  3887  00C8  00AF               	movwf	??___flmul
  3888  00C9  01B0               	clrf	??___flmul+1
  3889  00CA  01B1               	clrf	??___flmul+2
  3890  00CB  01B2               	clrf	??___flmul+3
  3891  00CC  082F               	movf	??___flmul,w
  3892  00CD  07B6               	addwf	___flmul@grs,f
  3893  00CE  0830               	movf	??___flmul+1,w
  3894  00CF  1103               	clrz
  3895  00D0  1803               	skipnc
  3896  00D1  3E01               	addlw	1
  3897  00D2  1903               	skipnz
  3898  00D3  28D5               	goto	u3021
  3899  00D4  07B7               	addwf	___flmul@grs+1,f
  3900  00D5                     u3021:	
  3901  00D5  0831               	movf	??___flmul+2,w
  3902  00D6  1103               	clrz
  3903  00D7  1803               	skipnc
  3904  00D8  3E01               	addlw	1
  3905  00D9  1903               	skipnz
  3906  00DA  28DC               	goto	u3022
  3907  00DB  07B8               	addwf	___flmul@grs+2,f
  3908  00DC                     u3022:	
  3909  00DC  0832               	movf	??___flmul+3,w
  3910  00DD  1103               	clrz
  3911  00DE  1803               	skipnc
  3912  00DF  3E01               	addlw	1
  3913  00E0  1903               	skipnz
  3914  00E1  28E3               	goto	u3023
  3915  00E2  07B9               	addwf	___flmul@grs+3,f
  3916  00E3                     u3023:	
  3917  00E3                     l3791:	
  3918  00E3  0840               	movf	___flmul@temp+1,w
  3919  00E4  00AF               	movwf	??___flmul
  3920  00E5  01B0               	clrf	??___flmul+1
  3921  00E6  01B1               	clrf	??___flmul+2
  3922  00E7  01B2               	clrf	??___flmul+3
  3923  00E8  082F               	movf	??___flmul,w
  3924  00E9  07BB               	addwf	___flmul@prod,f
  3925  00EA  0830               	movf	??___flmul+1,w
  3926  00EB  1103               	clrz
  3927  00EC  1803               	skipnc
  3928  00ED  3E01               	addlw	1
  3929  00EE  1903               	skipnz
  3930  00EF  28F1               	goto	u3031
  3931  00F0  07BC               	addwf	___flmul@prod+1,f
  3932  00F1                     u3031:	
  3933  00F1  0831               	movf	??___flmul+2,w
  3934  00F2  1103               	clrz
  3935  00F3  1803               	skipnc
  3936  00F4  3E01               	addlw	1
  3937  00F5  1903               	skipnz
  3938  00F6  28F8               	goto	u3032
  3939  00F7  07BD               	addwf	___flmul@prod+2,f
  3940  00F8                     u3032:	
  3941  00F8  0832               	movf	??___flmul+3,w
  3942  00F9  1103               	clrz
  3943  00FA  1803               	skipnc
  3944  00FB  3E01               	addlw	1
  3945  00FC  1903               	skipnz
  3946  00FD  28FF               	goto	u3033
  3947  00FE  07BE               	addwf	___flmul@prod+3,f
  3948  00FF                     u3033:	
  3949  00FF  0829               	movf	___flmul@b+2,w
  3950  0100  00AF               	movwf	??___flmul
  3951  0101  082F               	movf	??___flmul,w
  3952  0102  00F5               	movwf	__Umul8_16@multiplicand
  3953  0103  082B               	movf	___flmul@a,w
  3954  0104  120A  118A  27CD  120A  118A  	fcall	__Umul8_16
  3955  0109  0876               	movf	?__Umul8_16+1,w
  3956  010A  1283               	bcf	3,5	;RP0=0, select bank0
  3957  010B  1303               	bcf	3,6	;RP1=0, select bank0
  3958  010C  00C0               	movwf	___flmul@temp+1
  3959  010D  0875               	movf	?__Umul8_16,w
  3960  010E  00BF               	movwf	___flmul@temp
  3961  010F                     l3793:	
  3962  010F  083F               	movf	___flmul@temp,w
  3963  0110  00AF               	movwf	??___flmul
  3964  0111  01B0               	clrf	??___flmul+1
  3965  0112  01B1               	clrf	??___flmul+2
  3966  0113  01B2               	clrf	??___flmul+3
  3967  0114  082F               	movf	??___flmul,w
  3968  0115  07B6               	addwf	___flmul@grs,f
  3969  0116  0830               	movf	??___flmul+1,w
  3970  0117  1103               	clrz
  3971  0118  1803               	skipnc
  3972  0119  3E01               	addlw	1
  3973  011A  1903               	skipnz
  3974  011B  291D               	goto	u3041
  3975  011C  07B7               	addwf	___flmul@grs+1,f
  3976  011D                     u3041:	
  3977  011D  0831               	movf	??___flmul+2,w
  3978  011E  1103               	clrz
  3979  011F  1803               	skipnc
  3980  0120  3E01               	addlw	1
  3981  0121  1903               	skipnz
  3982  0122  2924               	goto	u3042
  3983  0123  07B8               	addwf	___flmul@grs+2,f
  3984  0124                     u3042:	
  3985  0124  0832               	movf	??___flmul+3,w
  3986  0125  1103               	clrz
  3987  0126  1803               	skipnc
  3988  0127  3E01               	addlw	1
  3989  0128  1903               	skipnz
  3990  0129  292B               	goto	u3043
  3991  012A  07B9               	addwf	___flmul@grs+3,f
  3992  012B                     u3043:	
  3993  012B                     l3795:	
  3994  012B  0840               	movf	___flmul@temp+1,w
  3995  012C  00AF               	movwf	??___flmul
  3996  012D  01B0               	clrf	??___flmul+1
  3997  012E  01B1               	clrf	??___flmul+2
  3998  012F  01B2               	clrf	??___flmul+3
  3999  0130  082F               	movf	??___flmul,w
  4000  0131  07BB               	addwf	___flmul@prod,f
  4001  0132  0830               	movf	??___flmul+1,w
  4002  0133  1103               	clrz
  4003  0134  1803               	skipnc
  4004  0135  3E01               	addlw	1
  4005  0136  1903               	skipnz
  4006  0137  2939               	goto	u3051
  4007  0138  07BC               	addwf	___flmul@prod+1,f
  4008  0139                     u3051:	
  4009  0139  0831               	movf	??___flmul+2,w
  4010  013A  1103               	clrz
  4011  013B  1803               	skipnc
  4012  013C  3E01               	addlw	1
  4013  013D  1903               	skipnz
  4014  013E  2940               	goto	u3052
  4015  013F  07BD               	addwf	___flmul@prod+2,f
  4016  0140                     u3052:	
  4017  0140  0832               	movf	??___flmul+3,w
  4018  0141  1103               	clrz
  4019  0142  1803               	skipnc
  4020  0143  3E01               	addlw	1
  4021  0144  1903               	skipnz
  4022  0145  2947               	goto	u3053
  4023  0146  07BE               	addwf	___flmul@prod+3,f
  4024  0147                     u3053:	
  4025  0147                     l3797:	
  4026  0147  3008               	movlw	8
  4027  0148  00AF               	movwf	??___flmul
  4028  0149                     u3065:	
  4029  0149  1003               	clrc
  4030  014A  0DB6               	rlf	___flmul@grs,f
  4031  014B  0DB7               	rlf	___flmul@grs+1,f
  4032  014C  0DB8               	rlf	___flmul@grs+2,f
  4033  014D  0DB9               	rlf	___flmul@grs+3,f
  4034  014E  0BAF               	decfsz	??___flmul,f
  4035  014F  2949               	goto	u3065
  4036  0150                     l3799:	
  4037  0150  0828               	movf	___flmul@b+1,w
  4038  0151  00AF               	movwf	??___flmul
  4039  0152  082F               	movf	??___flmul,w
  4040  0153  00F5               	movwf	__Umul8_16@multiplicand
  4041  0154  082B               	movf	___flmul@a,w
  4042  0155  120A  118A  27CD  120A  118A  	fcall	__Umul8_16
  4043  015A  0876               	movf	?__Umul8_16+1,w
  4044  015B  1283               	bcf	3,5	;RP0=0, select bank0
  4045  015C  1303               	bcf	3,6	;RP1=0, select bank0
  4046  015D  00C0               	movwf	___flmul@temp+1
  4047  015E  0875               	movf	?__Umul8_16,w
  4048  015F  00BF               	movwf	___flmul@temp
  4049  0160                     l3801:	
  4050  0160  083F               	movf	___flmul@temp,w
  4051  0161  00AF               	movwf	??___flmul
  4052  0162  0840               	movf	___flmul@temp+1,w
  4053  0163  00B0               	movwf	??___flmul+1
  4054  0164  01B1               	clrf	??___flmul+2
  4055  0165  01B2               	clrf	??___flmul+3
  4056  0166  082F               	movf	??___flmul,w
  4057  0167  07B6               	addwf	___flmul@grs,f
  4058  0168  0830               	movf	??___flmul+1,w
  4059  0169  1103               	clrz
  4060  016A  1803               	skipnc
  4061  016B  3E01               	addlw	1
  4062  016C  1903               	skipnz
  4063  016D  296F               	goto	u3071
  4064  016E  07B7               	addwf	___flmul@grs+1,f
  4065  016F                     u3071:	
  4066  016F  0831               	movf	??___flmul+2,w
  4067  0170  1103               	clrz
  4068  0171  1803               	skipnc
  4069  0172  3E01               	addlw	1
  4070  0173  1903               	skipnz
  4071  0174  2976               	goto	u3072
  4072  0175  07B8               	addwf	___flmul@grs+2,f
  4073  0176                     u3072:	
  4074  0176  0832               	movf	??___flmul+3,w
  4075  0177  1103               	clrz
  4076  0178  1803               	skipnc
  4077  0179  3E01               	addlw	1
  4078  017A  1903               	skipnz
  4079  017B  297D               	goto	u3073
  4080  017C  07B9               	addwf	___flmul@grs+3,f
  4081  017D                     u3073:	
  4082  017D                     l3803:	
  4083  017D  0827               	movf	___flmul@b,w
  4084  017E  00AF               	movwf	??___flmul
  4085  017F  082F               	movf	??___flmul,w
  4086  0180  00F5               	movwf	__Umul8_16@multiplicand
  4087  0181  082C               	movf	___flmul@a+1,w
  4088  0182  120A  118A  27CD  120A  118A  	fcall	__Umul8_16
  4089  0187  0876               	movf	?__Umul8_16+1,w
  4090  0188  1283               	bcf	3,5	;RP0=0, select bank0
  4091  0189  1303               	bcf	3,6	;RP1=0, select bank0
  4092  018A  00C0               	movwf	___flmul@temp+1
  4093  018B  0875               	movf	?__Umul8_16,w
  4094  018C  00BF               	movwf	___flmul@temp
  4095  018D                     l3805:	
  4096  018D  083F               	movf	___flmul@temp,w
  4097  018E  00AF               	movwf	??___flmul
  4098  018F  0840               	movf	___flmul@temp+1,w
  4099  0190  00B0               	movwf	??___flmul+1
  4100  0191  01B1               	clrf	??___flmul+2
  4101  0192  01B2               	clrf	??___flmul+3
  4102  0193  082F               	movf	??___flmul,w
  4103  0194  07B6               	addwf	___flmul@grs,f
  4104  0195  0830               	movf	??___flmul+1,w
  4105  0196  1103               	clrz
  4106  0197  1803               	skipnc
  4107  0198  3E01               	addlw	1
  4108  0199  1903               	skipnz
  4109  019A  299C               	goto	u3081
  4110  019B  07B7               	addwf	___flmul@grs+1,f
  4111  019C                     u3081:	
  4112  019C  0831               	movf	??___flmul+2,w
  4113  019D  1103               	clrz
  4114  019E  1803               	skipnc
  4115  019F  3E01               	addlw	1
  4116  01A0  1903               	skipnz
  4117  01A1  29A3               	goto	u3082
  4118  01A2  07B8               	addwf	___flmul@grs+2,f
  4119  01A3                     u3082:	
  4120  01A3  0832               	movf	??___flmul+3,w
  4121  01A4  1103               	clrz
  4122  01A5  1803               	skipnc
  4123  01A6  3E01               	addlw	1
  4124  01A7  1903               	skipnz
  4125  01A8  29AA               	goto	u3083
  4126  01A9  07B9               	addwf	___flmul@grs+3,f
  4127  01AA                     u3083:	
  4128  01AA                     l3807:	
  4129  01AA  3008               	movlw	8
  4130  01AB  00AF               	movwf	??___flmul
  4131  01AC                     u3095:	
  4132  01AC  1003               	clrc
  4133  01AD  0DB6               	rlf	___flmul@grs,f
  4134  01AE  0DB7               	rlf	___flmul@grs+1,f
  4135  01AF  0DB8               	rlf	___flmul@grs+2,f
  4136  01B0  0DB9               	rlf	___flmul@grs+3,f
  4137  01B1  0BAF               	decfsz	??___flmul,f
  4138  01B2  29AC               	goto	u3095
  4139  01B3  0827               	movf	___flmul@b,w
  4140  01B4  00AF               	movwf	??___flmul
  4141  01B5  082F               	movf	??___flmul,w
  4142  01B6  00F5               	movwf	__Umul8_16@multiplicand
  4143  01B7  082B               	movf	___flmul@a,w
  4144  01B8  120A  118A  27CD  120A  118A  	fcall	__Umul8_16
  4145  01BD  0876               	movf	?__Umul8_16+1,w
  4146  01BE  1283               	bcf	3,5	;RP0=0, select bank0
  4147  01BF  1303               	bcf	3,6	;RP1=0, select bank0
  4148  01C0  00C0               	movwf	___flmul@temp+1
  4149  01C1  0875               	movf	?__Umul8_16,w
  4150  01C2  00BF               	movwf	___flmul@temp
  4151  01C3                     l3809:	
  4152  01C3  083F               	movf	___flmul@temp,w
  4153  01C4  00AF               	movwf	??___flmul
  4154  01C5  0840               	movf	___flmul@temp+1,w
  4155  01C6  00B0               	movwf	??___flmul+1
  4156  01C7  01B1               	clrf	??___flmul+2
  4157  01C8  01B2               	clrf	??___flmul+3
  4158  01C9  082F               	movf	??___flmul,w
  4159  01CA  07B6               	addwf	___flmul@grs,f
  4160  01CB  0830               	movf	??___flmul+1,w
  4161  01CC  1103               	clrz
  4162  01CD  1803               	skipnc
  4163  01CE  3E01               	addlw	1
  4164  01CF  1903               	skipnz
  4165  01D0  29D2               	goto	u3101
  4166  01D1  07B7               	addwf	___flmul@grs+1,f
  4167  01D2                     u3101:	
  4168  01D2  0831               	movf	??___flmul+2,w
  4169  01D3  1103               	clrz
  4170  01D4  1803               	skipnc
  4171  01D5  3E01               	addlw	1
  4172  01D6  1903               	skipnz
  4173  01D7  29D9               	goto	u3102
  4174  01D8  07B8               	addwf	___flmul@grs+2,f
  4175  01D9                     u3102:	
  4176  01D9  0832               	movf	??___flmul+3,w
  4177  01DA  1103               	clrz
  4178  01DB  1803               	skipnc
  4179  01DC  3E01               	addlw	1
  4180  01DD  1903               	skipnz
  4181  01DE  29E0               	goto	u3103
  4182  01DF  07B9               	addwf	___flmul@grs+3,f
  4183  01E0                     u3103:	
  4184  01E0                     l3811:	
  4185  01E0  0828               	movf	___flmul@b+1,w
  4186  01E1  00AF               	movwf	??___flmul
  4187  01E2  082F               	movf	??___flmul,w
  4188  01E3  00F5               	movwf	__Umul8_16@multiplicand
  4189  01E4  082D               	movf	___flmul@a+2,w
  4190  01E5  120A  118A  27CD  120A  118A  	fcall	__Umul8_16
  4191  01EA  0876               	movf	?__Umul8_16+1,w
  4192  01EB  1283               	bcf	3,5	;RP0=0, select bank0
  4193  01EC  1303               	bcf	3,6	;RP1=0, select bank0
  4194  01ED  00C0               	movwf	___flmul@temp+1
  4195  01EE  0875               	movf	?__Umul8_16,w
  4196  01EF  00BF               	movwf	___flmul@temp
  4197  01F0  083F               	movf	___flmul@temp,w
  4198  01F1  00AF               	movwf	??___flmul
  4199  01F2  0840               	movf	___flmul@temp+1,w
  4200  01F3  00B0               	movwf	??___flmul+1
  4201  01F4  01B1               	clrf	??___flmul+2
  4202  01F5  01B2               	clrf	??___flmul+3
  4203  01F6  082F               	movf	??___flmul,w
  4204  01F7  07BB               	addwf	___flmul@prod,f
  4205  01F8  0830               	movf	??___flmul+1,w
  4206  01F9  1103               	clrz
  4207  01FA  1803               	skipnc
  4208  01FB  3E01               	addlw	1
  4209  01FC  1903               	skipnz
  4210  01FD  29FF               	goto	u3111
  4211  01FE  07BC               	addwf	___flmul@prod+1,f
  4212  01FF                     u3111:	
  4213  01FF  0831               	movf	??___flmul+2,w
  4214  0200  1103               	clrz
  4215  0201  1803               	skipnc
  4216  0202  3E01               	addlw	1
  4217  0203  1903               	skipnz
  4218  0204  2A06               	goto	u3112
  4219  0205  07BD               	addwf	___flmul@prod+2,f
  4220  0206                     u3112:	
  4221  0206  0832               	movf	??___flmul+3,w
  4222  0207  1103               	clrz
  4223  0208  1803               	skipnc
  4224  0209  3E01               	addlw	1
  4225  020A  1903               	skipnz
  4226  020B  2A0D               	goto	u3113
  4227  020C  07BE               	addwf	___flmul@prod+3,f
  4228  020D                     u3113:	
  4229  020D                     l3813:	
  4230  020D  0829               	movf	___flmul@b+2,w
  4231  020E  00AF               	movwf	??___flmul
  4232  020F  082F               	movf	??___flmul,w
  4233  0210  00F5               	movwf	__Umul8_16@multiplicand
  4234  0211  082C               	movf	___flmul@a+1,w
  4235  0212  120A  118A  27CD  120A  118A  	fcall	__Umul8_16
  4236  0217  0876               	movf	?__Umul8_16+1,w
  4237  0218  1283               	bcf	3,5	;RP0=0, select bank0
  4238  0219  1303               	bcf	3,6	;RP1=0, select bank0
  4239  021A  00C0               	movwf	___flmul@temp+1
  4240  021B  0875               	movf	?__Umul8_16,w
  4241  021C  00BF               	movwf	___flmul@temp
  4242  021D                     l3815:	
  4243  021D  083F               	movf	___flmul@temp,w
  4244  021E  00AF               	movwf	??___flmul
  4245  021F  0840               	movf	___flmul@temp+1,w
  4246  0220  00B0               	movwf	??___flmul+1
  4247  0221  01B1               	clrf	??___flmul+2
  4248  0222  01B2               	clrf	??___flmul+3
  4249  0223  082F               	movf	??___flmul,w
  4250  0224  07BB               	addwf	___flmul@prod,f
  4251  0225  0830               	movf	??___flmul+1,w
  4252  0226  1103               	clrz
  4253  0227  1803               	skipnc
  4254  0228  3E01               	addlw	1
  4255  0229  1903               	skipnz
  4256  022A  2A2C               	goto	u3121
  4257  022B  07BC               	addwf	___flmul@prod+1,f
  4258  022C                     u3121:	
  4259  022C  0831               	movf	??___flmul+2,w
  4260  022D  1103               	clrz
  4261  022E  1803               	skipnc
  4262  022F  3E01               	addlw	1
  4263  0230  1903               	skipnz
  4264  0231  2A33               	goto	u3122
  4265  0232  07BD               	addwf	___flmul@prod+2,f
  4266  0233                     u3122:	
  4267  0233  0832               	movf	??___flmul+3,w
  4268  0234  1103               	clrz
  4269  0235  1803               	skipnc
  4270  0236  3E01               	addlw	1
  4271  0237  1903               	skipnz
  4272  0238  2A3A               	goto	u3123
  4273  0239  07BE               	addwf	___flmul@prod+3,f
  4274  023A                     u3123:	
  4275  023A  0829               	movf	___flmul@b+2,w
  4276  023B  00AF               	movwf	??___flmul
  4277  023C  082F               	movf	??___flmul,w
  4278  023D  00F5               	movwf	__Umul8_16@multiplicand
  4279  023E  082D               	movf	___flmul@a+2,w
  4280  023F  120A  118A  27CD  120A  118A  	fcall	__Umul8_16
  4281  0244  0876               	movf	?__Umul8_16+1,w
  4282  0245  1283               	bcf	3,5	;RP0=0, select bank0
  4283  0246  1303               	bcf	3,6	;RP1=0, select bank0
  4284  0247  00C0               	movwf	___flmul@temp+1
  4285  0248  0875               	movf	?__Umul8_16,w
  4286  0249  00BF               	movwf	___flmul@temp
  4287  024A                     l3817:	
  4288  024A  083F               	movf	___flmul@temp,w
  4289  024B  00AF               	movwf	??___flmul
  4290  024C  0840               	movf	___flmul@temp+1,w
  4291  024D  00B0               	movwf	??___flmul+1
  4292  024E  01B1               	clrf	??___flmul+2
  4293  024F  01B2               	clrf	??___flmul+3
  4294  0250  3008               	movlw	8
  4295  0251                     u3135:	
  4296  0251  1003               	clrc
  4297  0252  0DAF               	rlf	??___flmul,f
  4298  0253  0DB0               	rlf	??___flmul+1,f
  4299  0254  0DB1               	rlf	??___flmul+2,f
  4300  0255  0DB2               	rlf	??___flmul+3,f
  4301  0256                     u3130:	
  4302  0256  3EFF               	addlw	-1
  4303  0257  1D03               	skipz
  4304  0258  2A51               	goto	u3135
  4305  0259  082F               	movf	??___flmul,w
  4306  025A  07BB               	addwf	___flmul@prod,f
  4307  025B  0830               	movf	??___flmul+1,w
  4308  025C  1103               	clrz
  4309  025D  1803               	skipnc
  4310  025E  3E01               	addlw	1
  4311  025F  1903               	skipnz
  4312  0260  2A62               	goto	u3141
  4313  0261  07BC               	addwf	___flmul@prod+1,f
  4314  0262                     u3141:	
  4315  0262  0831               	movf	??___flmul+2,w
  4316  0263  1103               	clrz
  4317  0264  1803               	skipnc
  4318  0265  3E01               	addlw	1
  4319  0266  1903               	skipnz
  4320  0267  2A69               	goto	u3142
  4321  0268  07BD               	addwf	___flmul@prod+2,f
  4322  0269                     u3142:	
  4323  0269  0832               	movf	??___flmul+3,w
  4324  026A  1103               	clrz
  4325  026B  1803               	skipnc
  4326  026C  3E01               	addlw	1
  4327  026D  1903               	skipnz
  4328  026E  2A70               	goto	u3143
  4329  026F  07BE               	addwf	___flmul@prod+3,f
  4330  0270                     u3143:	
  4331  0270                     l3819:	
  4332  0270  0836               	movf	___flmul@grs,w
  4333  0271  00AF               	movwf	??___flmul
  4334  0272  0837               	movf	___flmul@grs+1,w
  4335  0273  00B0               	movwf	??___flmul+1
  4336  0274  0838               	movf	___flmul@grs+2,w
  4337  0275  00B1               	movwf	??___flmul+2
  4338  0276  0839               	movf	___flmul@grs+3,w
  4339  0277  00B2               	movwf	??___flmul+3
  4340  0278  3018               	movlw	24
  4341  0279                     u3155:	
  4342  0279  1003               	clrc
  4343  027A  0CB2               	rrf	??___flmul+3,f
  4344  027B  0CB1               	rrf	??___flmul+2,f
  4345  027C  0CB0               	rrf	??___flmul+1,f
  4346  027D  0CAF               	rrf	??___flmul,f
  4347  027E                     u3150:	
  4348  027E  3EFF               	addlw	-1
  4349  027F  1D03               	skipz
  4350  0280  2A79               	goto	u3155
  4351  0281  082F               	movf	??___flmul,w
  4352  0282  07BB               	addwf	___flmul@prod,f
  4353  0283  0830               	movf	??___flmul+1,w
  4354  0284  1103               	clrz
  4355  0285  1803               	skipnc
  4356  0286  3E01               	addlw	1
  4357  0287  1903               	skipnz
  4358  0288  2A8A               	goto	u3161
  4359  0289  07BC               	addwf	___flmul@prod+1,f
  4360  028A                     u3161:	
  4361  028A  0831               	movf	??___flmul+2,w
  4362  028B  1103               	clrz
  4363  028C  1803               	skipnc
  4364  028D  3E01               	addlw	1
  4365  028E  1903               	skipnz
  4366  028F  2A91               	goto	u3162
  4367  0290  07BD               	addwf	___flmul@prod+2,f
  4368  0291                     u3162:	
  4369  0291  0832               	movf	??___flmul+3,w
  4370  0292  1103               	clrz
  4371  0293  1803               	skipnc
  4372  0294  3E01               	addlw	1
  4373  0295  1903               	skipnz
  4374  0296  2A98               	goto	u3163
  4375  0297  07BE               	addwf	___flmul@prod+3,f
  4376  0298                     u3163:	
  4377  0298                     l3821:	
  4378  0298  3008               	movlw	8
  4379  0299  00AF               	movwf	??___flmul
  4380  029A                     u3175:	
  4381  029A  1003               	clrc
  4382  029B  0DB6               	rlf	___flmul@grs,f
  4383  029C  0DB7               	rlf	___flmul@grs+1,f
  4384  029D  0DB8               	rlf	___flmul@grs+2,f
  4385  029E  0DB9               	rlf	___flmul@grs+3,f
  4386  029F  0BAF               	decfsz	??___flmul,f
  4387  02A0  2A9A               	goto	u3175
  4388  02A1                     l3823:	
  4389  02A1  083A               	movf	___flmul@bexp,w
  4390  02A2  0735               	addwf	___flmul@aexp,w
  4391  02A3  00AF               	movwf	??___flmul
  4392  02A4  01B0               	clrf	??___flmul+1
  4393  02A5  0DB0               	rlf	??___flmul+1,f
  4394  02A6  082F               	movf	??___flmul,w
  4395  02A7  3E82               	addlw	130
  4396  02A8  00BF               	movwf	___flmul@temp
  4397  02A9  0830               	movf	??___flmul+1,w
  4398  02AA  1803               	skipnc
  4399  02AB  3E01               	addlw	1
  4400  02AC  3EFF               	addlw	255
  4401  02AD  00C0               	movwf	___flmul@temp+1
  4402  02AE  2ACC               	goto	l3835
  4403  02AF                     l3825:	
  4404  02AF  3001               	movlw	1
  4405  02B0  00AF               	movwf	??___flmul
  4406  02B1                     u3185:	
  4407  02B1  1003               	clrc
  4408  02B2  0DBB               	rlf	___flmul@prod,f
  4409  02B3  0DBC               	rlf	___flmul@prod+1,f
  4410  02B4  0DBD               	rlf	___flmul@prod+2,f
  4411  02B5  0DBE               	rlf	___flmul@prod+3,f
  4412  02B6  0BAF               	decfsz	??___flmul,f
  4413  02B7  2AB1               	goto	u3185
  4414  02B8                     l3827:	
  4415  02B8  1FB9               	btfss	___flmul@grs+3,7
  4416  02B9  2ABB               	goto	u3191
  4417  02BA  2ABC               	goto	u3190
  4418  02BB                     u3191:	
  4419  02BB  2ABD               	goto	l3831
  4420  02BC                     u3190:	
  4421  02BC                     l3829:	
  4422  02BC  143B               	bsf	___flmul@prod,0
  4423  02BD                     l3831:	
  4424  02BD  3001               	movlw	1
  4425  02BE  00AF               	movwf	??___flmul
  4426  02BF                     u3205:	
  4427  02BF  1003               	clrc
  4428  02C0  0DB6               	rlf	___flmul@grs,f
  4429  02C1  0DB7               	rlf	___flmul@grs+1,f
  4430  02C2  0DB8               	rlf	___flmul@grs+2,f
  4431  02C3  0DB9               	rlf	___flmul@grs+3,f
  4432  02C4  0BAF               	decfsz	??___flmul,f
  4433  02C5  2ABF               	goto	u3205
  4434  02C6                     l3833:	
  4435  02C6  30FF               	movlw	255
  4436  02C7  07BF               	addwf	___flmul@temp,f
  4437  02C8  1803               	skipnc
  4438  02C9  0AC0               	incf	___flmul@temp+1,f
  4439  02CA  30FF               	movlw	255
  4440  02CB  07C0               	addwf	___flmul@temp+1,f
  4441  02CC                     l3835:	
  4442  02CC  1FBD               	btfss	___flmul@prod+2,7
  4443  02CD  2ACF               	goto	u3211
  4444  02CE  2AD0               	goto	u3210
  4445  02CF                     u3211:	
  4446  02CF  2AAF               	goto	l3825
  4447  02D0                     u3210:	
  4448  02D0                     l3837:	
  4449  02D0  01B5               	clrf	___flmul@aexp
  4450  02D1                     l3839:	
  4451  02D1  1FB9               	btfss	___flmul@grs+3,7
  4452  02D2  2AD4               	goto	u3221
  4453  02D3  2AD5               	goto	u3220
  4454  02D4                     u3221:	
  4455  02D4  2AF1               	goto	l3847
  4456  02D5                     u3220:	
  4457  02D5                     l3841:	
  4458  02D5  30FF               	movlw	255
  4459  02D6  0536               	andwf	___flmul@grs,w
  4460  02D7  00AF               	movwf	??___flmul
  4461  02D8  30FF               	movlw	255
  4462  02D9  0537               	andwf	___flmul@grs+1,w
  4463  02DA  00B0               	movwf	??___flmul+1
  4464  02DB  30FF               	movlw	255
  4465  02DC  0538               	andwf	___flmul@grs+2,w
  4466  02DD  00B1               	movwf	??___flmul+2
  4467  02DE  307F               	movlw	127
  4468  02DF  0539               	andwf	___flmul@grs+3,w
  4469  02E0  00B2               	movwf	??___flmul+3
  4470  02E1  0832               	movf	??___flmul+3,w
  4471  02E2  0431               	iorwf	??___flmul+2,w
  4472  02E3  0430               	iorwf	??___flmul+1,w
  4473  02E4  042F               	iorwf	??___flmul,w
  4474  02E5  1903               	skipnz
  4475  02E6  2AE8               	goto	u3231
  4476  02E7  2AE9               	goto	u3230
  4477  02E8                     u3231:	
  4478  02E8  2AEC               	goto	l834
  4479  02E9                     u3230:	
  4480  02E9                     l3843:	
  4481  02E9  01B5               	clrf	___flmul@aexp
  4482  02EA  0AB5               	incf	___flmul@aexp,f
  4483  02EB  2AF1               	goto	l3847
  4484  02EC                     l834:	
  4485  02EC  1C3B               	btfss	___flmul@prod,0
  4486  02ED  2AEF               	goto	u3241
  4487  02EE  2AF0               	goto	u3240
  4488  02EF                     u3241:	
  4489  02EF  2AF1               	goto	l3847
  4490  02F0                     u3240:	
  4491  02F0  2AE9               	goto	l3843
  4492  02F1                     l3847:	
  4493  02F1  0835               	movf	___flmul@aexp,w
  4494  02F2  1903               	btfsc	3,2
  4495  02F3  2AF5               	goto	u3251
  4496  02F4  2AF6               	goto	u3250
  4497  02F5                     u3251:	
  4498  02F5  2B27               	goto	l3857
  4499  02F6                     u3250:	
  4500  02F6                     l3849:	
  4501  02F6  3001               	movlw	1
  4502  02F7  07BB               	addwf	___flmul@prod,f
  4503  02F8  3000               	movlw	0
  4504  02F9  1803               	skipnc
  4505  02FA  3001               	movlw	1
  4506  02FB  07BC               	addwf	___flmul@prod+1,f
  4507  02FC  3000               	movlw	0
  4508  02FD  1803               	skipnc
  4509  02FE  3001               	movlw	1
  4510  02FF  07BD               	addwf	___flmul@prod+2,f
  4511  0300  3000               	movlw	0
  4512  0301  1803               	skipnc
  4513  0302  3001               	movlw	1
  4514  0303  07BE               	addwf	___flmul@prod+3,f
  4515  0304                     l3851:	
  4516  0304  1C3E               	btfss	___flmul@prod+3,0
  4517  0305  2B07               	goto	u3261
  4518  0306  2B08               	goto	u3260
  4519  0307                     u3261:	
  4520  0307  2B27               	goto	l3857
  4521  0308                     u3260:	
  4522  0308                     l3853:	
  4523  0308  083B               	movf	___flmul@prod,w
  4524  0309  00AF               	movwf	??___flmul
  4525  030A  083C               	movf	___flmul@prod+1,w
  4526  030B  00B0               	movwf	??___flmul+1
  4527  030C  083D               	movf	___flmul@prod+2,w
  4528  030D  00B1               	movwf	??___flmul+2
  4529  030E  083E               	movf	___flmul@prod+3,w
  4530  030F  00B2               	movwf	??___flmul+3
  4531  0310  3001               	movlw	1
  4532  0311  00B3               	movwf	??___flmul+4
  4533  0312                     u3275:	
  4534  0312  0D32               	rlf	??___flmul+3,w
  4535  0313  0CB2               	rrf	??___flmul+3,f
  4536  0314  0CB1               	rrf	??___flmul+2,f
  4537  0315  0CB0               	rrf	??___flmul+1,f
  4538  0316  0CAF               	rrf	??___flmul,f
  4539  0317                     u3270:	
  4540  0317  0BB3               	decfsz	??___flmul+4,f
  4541  0318  2B12               	goto	u3275
  4542  0319  0832               	movf	??___flmul+3,w
  4543  031A  00BE               	movwf	___flmul@prod+3
  4544  031B  0831               	movf	??___flmul+2,w
  4545  031C  00BD               	movwf	___flmul@prod+2
  4546  031D  0830               	movf	??___flmul+1,w
  4547  031E  00BC               	movwf	___flmul@prod+1
  4548  031F  082F               	movf	??___flmul,w
  4549  0320  00BB               	movwf	___flmul@prod
  4550  0321                     l3855:	
  4551  0321  3001               	movlw	1
  4552  0322  07BF               	addwf	___flmul@temp,f
  4553  0323  1803               	skipnc
  4554  0324  0AC0               	incf	___flmul@temp+1,f
  4555  0325  3000               	movlw	0
  4556  0326  07C0               	addwf	___flmul@temp+1,f
  4557  0327                     l3857:	
  4558  0327  0840               	movf	___flmul@temp+1,w
  4559  0328  3A80               	xorlw	128
  4560  0329  00FF               	movwf	btemp+1
  4561  032A  3080               	movlw	128
  4562  032B  027F               	subwf	btemp+1,w
  4563  032C  1D03               	skipz
  4564  032D  2B30               	goto	u3285
  4565  032E  30FF               	movlw	255
  4566  032F  023F               	subwf	___flmul@temp,w
  4567  0330                     u3285:	
  4568  0330  1C03               	skipc
  4569  0331  2B33               	goto	u3281
  4570  0332  2B34               	goto	u3280
  4571  0333                     u3281:	
  4572  0333  2B3F               	goto	l3861
  4573  0334                     u3280:	
  4574  0334                     l3859:	
  4575  0334  307F               	movlw	127
  4576  0335  1283               	bcf	3,5	;RP0=0, select bank0
  4577  0336  1303               	bcf	3,6	;RP1=0, select bank0
  4578  0337  00BE               	movwf	___flmul@prod+3
  4579  0338  3080               	movlw	128
  4580  0339  00BD               	movwf	___flmul@prod+2
  4581  033A  3000               	movlw	0
  4582  033B  00BC               	movwf	___flmul@prod+1
  4583  033C  3000               	movlw	0
  4584  033D  00BB               	movwf	___flmul@prod
  4585  033E  2B74               	goto	l840
  4586  033F                     l3861:	
  4587  033F  1283               	bcf	3,5	;RP0=0, select bank0
  4588  0340  1303               	bcf	3,6	;RP1=0, select bank0
  4589  0341  0840               	movf	___flmul@temp+1,w
  4590  0342  3A80               	xorlw	128
  4591  0343  00FF               	movwf	btemp+1
  4592  0344  3080               	movlw	128
  4593  0345  027F               	subwf	btemp+1,w
  4594  0346  1D03               	skipz
  4595  0347  2B4A               	goto	u3295
  4596  0348  3001               	movlw	1
  4597  0349  023F               	subwf	___flmul@temp,w
  4598  034A                     u3295:	
  4599  034A  1803               	skipnc
  4600  034B  2B4D               	goto	u3291
  4601  034C  2B4E               	goto	u3290
  4602  034D                     u3291:	
  4603  034D  2B5A               	goto	l3867
  4604  034E                     u3290:	
  4605  034E                     l3863:	
  4606  034E  3000               	movlw	0
  4607  034F  1283               	bcf	3,5	;RP0=0, select bank0
  4608  0350  1303               	bcf	3,6	;RP1=0, select bank0
  4609  0351  00BE               	movwf	___flmul@prod+3
  4610  0352  3000               	movlw	0
  4611  0353  00BD               	movwf	___flmul@prod+2
  4612  0354  3000               	movlw	0
  4613  0355  00BC               	movwf	___flmul@prod+1
  4614  0356  3000               	movlw	0
  4615  0357  00BB               	movwf	___flmul@prod
  4616  0358                     l3865:	
  4617  0358  01B4               	clrf	___flmul@sign
  4618  0359  2B74               	goto	l840
  4619  035A                     l3867:	
  4620  035A  1283               	bcf	3,5	;RP0=0, select bank0
  4621  035B  1303               	bcf	3,6	;RP1=0, select bank0
  4622  035C  083F               	movf	___flmul@temp,w
  4623  035D  00AF               	movwf	??___flmul
  4624  035E  082F               	movf	??___flmul,w
  4625  035F  00BA               	movwf	___flmul@bexp
  4626  0360  30FF               	movlw	255
  4627  0361  05BB               	andwf	___flmul@prod,f
  4628  0362  30FF               	movlw	255
  4629  0363  05BC               	andwf	___flmul@prod+1,f
  4630  0364  307F               	movlw	127
  4631  0365  05BD               	andwf	___flmul@prod+2,f
  4632  0366  3000               	movlw	0
  4633  0367  05BE               	andwf	___flmul@prod+3,f
  4634  0368                     l3869:	
  4635  0368  1C3A               	btfss	___flmul@bexp,0
  4636  0369  2B6B               	goto	u3301
  4637  036A  2B6C               	goto	u3300
  4638  036B                     u3301:	
  4639  036B  2B6D               	goto	l3873
  4640  036C                     u3300:	
  4641  036C                     l3871:	
  4642  036C  17BD               	bsf	___flmul@prod+2,7
  4643  036D                     l3873:	
  4644  036D  083A               	movf	___flmul@bexp,w
  4645  036E  00AF               	movwf	??___flmul
  4646  036F  1003               	clrc
  4647  0370  0C2F               	rrf	??___flmul,w
  4648  0371  00B0               	movwf	??___flmul+1
  4649  0372  0830               	movf	??___flmul+1,w
  4650  0373  00BE               	movwf	___flmul@prod+3
  4651  0374                     l840:	
  4652  0374  0834               	movf	___flmul@sign,w
  4653  0375  00AF               	movwf	??___flmul
  4654  0376  082F               	movf	??___flmul,w
  4655  0377  04BE               	iorwf	___flmul@prod+3,f
  4656  0378                     l3875:	
  4657  0378  083E               	movf	___flmul@prod+3,w
  4658  0379  00AA               	movwf	?___flmul+3
  4659  037A  083D               	movf	___flmul@prod+2,w
  4660  037B  00A9               	movwf	?___flmul+2
  4661  037C  083C               	movf	___flmul@prod+1,w
  4662  037D  00A8               	movwf	?___flmul+1
  4663  037E  083B               	movf	___flmul@prod,w
  4664  037F  00A7               	movwf	?___flmul
  4665  0380                     l828:	
  4666  0380  0008               	return
  4667  0381                     __end_of___flmul:	
  4668                           
  4669                           	psect	text10
  4670  07CD                     __ptext10:	
  4671 ;; *************** function __Umul8_16 *****************
  4672 ;; Defined at:
  4673 ;;		line 4 in file "C:\Program Files (x86)\Microchip\xc8\v2.10\pic\sources\c90\common\Umul8_16.c"
  4674 ;; Parameters:    Size  Location     Type
  4675 ;;  multiplier      1    wreg     unsigned char 
  4676 ;;  multiplicand    1    5[COMMON] unsigned char 
  4677 ;; Auto vars:     Size  Location     Type
  4678 ;;  multiplier      1    6[BANK0 ] unsigned char 
  4679 ;;  word_mpld       2    4[BANK0 ] unsigned int 
  4680 ;;  product         2    2[BANK0 ] unsigned int 
  4681 ;; Return value:  Size  Location     Type
  4682 ;;                  2    5[COMMON] unsigned int 
  4683 ;; Registers used:
  4684 ;;		wreg, status,2, status,0
  4685 ;; Tracked objects:
  4686 ;;		On entry : 0/0
  4687 ;;		On exit  : 0/0
  4688 ;;		Unchanged: 0/0
  4689 ;; Data sizes:     COMMON   BANK0   BANK1   BANK3   BANK2
  4690 ;;      Params:         2       0       0       0       0
  4691 ;;      Locals:         0       5       0       0       0
  4692 ;;      Temps:          0       2       0       0       0
  4693 ;;      Totals:         2       7       0       0       0
  4694 ;;Total ram usage:        9 bytes
  4695 ;; Hardware stack levels used:    1
  4696 ;; Hardware stack levels required when called:    1
  4697 ;; This function calls:
  4698 ;;		Nothing
  4699 ;; This function is called by:
  4700 ;;		___flmul
  4701 ;; This function uses a non-reentrant model
  4702 ;;
  4703                           
  4704                           
  4705                           ;psect for function __Umul8_16
  4706  07CD                     __Umul8_16:	
  4707                           
  4708                           ;incstack = 0
  4709                           ; Regs used in __Umul8_16: [wreg+status,2+status,0]
  4710                           ;__Umul8_16@multiplier stored from wreg
  4711  07CD  1283               	bcf	3,5	;RP0=0, select bank0
  4712  07CE  1303               	bcf	3,6	;RP1=0, select bank0
  4713  07CF  00A6               	movwf	__Umul8_16@multiplier
  4714  07D0                     l3599:	
  4715  07D0  01A2               	clrf	__Umul8_16@product
  4716  07D1  01A3               	clrf	__Umul8_16@product+1
  4717  07D2                     l3601:	
  4718  07D2  0875               	movf	__Umul8_16@multiplicand,w
  4719  07D3  00A0               	movwf	??__Umul8_16
  4720  07D4  01A1               	clrf	??__Umul8_16+1
  4721  07D5  0820               	movf	??__Umul8_16,w
  4722  07D6  00A4               	movwf	__Umul8_16@word_mpld
  4723  07D7  0821               	movf	??__Umul8_16+1,w
  4724  07D8  00A5               	movwf	__Umul8_16@word_mpld+1
  4725  07D9                     l3603:	
  4726  07D9  1C26               	btfss	__Umul8_16@multiplier,0
  4727  07DA  2FDC               	goto	u2691
  4728  07DB  2FDD               	goto	u2690
  4729  07DC                     u2691:	
  4730  07DC  2FE3               	goto	l885
  4731  07DD                     u2690:	
  4732  07DD                     l3605:	
  4733  07DD  0824               	movf	__Umul8_16@word_mpld,w
  4734  07DE  07A2               	addwf	__Umul8_16@product,f
  4735  07DF  1803               	skipnc
  4736  07E0  0AA3               	incf	__Umul8_16@product+1,f
  4737  07E1  0825               	movf	__Umul8_16@word_mpld+1,w
  4738  07E2  07A3               	addwf	__Umul8_16@product+1,f
  4739  07E3                     l885:	
  4740  07E3  3001               	movlw	1
  4741  07E4                     u2705:	
  4742  07E4  1003               	clrc
  4743  07E5  0DA4               	rlf	__Umul8_16@word_mpld,f
  4744  07E6  0DA5               	rlf	__Umul8_16@word_mpld+1,f
  4745  07E7  3EFF               	addlw	-1
  4746  07E8  1D03               	skipz
  4747  07E9  2FE4               	goto	u2705
  4748  07EA  1003               	clrc
  4749  07EB  0CA6               	rrf	__Umul8_16@multiplier,f
  4750  07EC                     l3607:	
  4751  07EC  0826               	movf	__Umul8_16@multiplier,w
  4752  07ED  1D03               	btfss	3,2
  4753  07EE  2FF0               	goto	u2711
  4754  07EF  2FF1               	goto	u2710
  4755  07F0                     u2711:	
  4756  07F0  2FD9               	goto	l3603
  4757  07F1                     u2710:	
  4758  07F1                     l3609:	
  4759  07F1  0823               	movf	__Umul8_16@product+1,w
  4760  07F2  00F6               	movwf	?__Umul8_16+1
  4761  07F3  0822               	movf	__Umul8_16@product,w
  4762  07F4  00F5               	movwf	?__Umul8_16
  4763  07F5                     l887:	
  4764  07F5  0008               	return
  4765  07F6                     __end_of__Umul8_16:	
  4766                           
  4767                           	psect	text11
  4768  0C7B                     __ptext11:	
  4769 ;; *************** function _cntdisp *****************
  4770 ;; Defined at:
  4771 ;;		line 165 in file "LabLCDisp.c"
  4772 ;; Parameters:    Size  Location     Type
  4773 ;;  datac           1    wreg     unsigned char 
  4774 ;; Auto vars:     Size  Location     Type
  4775 ;;  datac           1   16[BANK0 ] unsigned char 
  4776 ;;  vals            2   17[BANK0 ] int 
  4777 ;;  ent3            2   14[BANK0 ] int 
  4778 ;;  ent2            2   12[BANK0 ] int 
  4779 ;;  ent1            2   10[BANK0 ] int 
  4780 ;; Return value:  Size  Location     Type
  4781 ;;                  1    wreg      void 
  4782 ;; Registers used:
  4783 ;;		wreg, fsr0l, fsr0h, status,2, status,0, pclath, cstack
  4784 ;; Tracked objects:
  4785 ;;		On entry : 0/0
  4786 ;;		On exit  : 0/0
  4787 ;;		Unchanged: 0/0
  4788 ;; Data sizes:     COMMON   BANK0   BANK1   BANK3   BANK2
  4789 ;;      Params:         0       0       0       0       0
  4790 ;;      Locals:         0       9       0       0       0
  4791 ;;      Temps:          0       2       0       0       0
  4792 ;;      Totals:         0      11       0       0       0
  4793 ;;Total ram usage:       11 bytes
  4794 ;; Hardware stack levels used:    1
  4795 ;; Hardware stack levels required when called:    4
  4796 ;; This function calls:
  4797 ;;		___awdiv
  4798 ;;		___awmod
  4799 ;;		_lcd_cursor_set
  4800 ;;		_lcd_wstring
  4801 ;; This function is called by:
  4802 ;;		_main
  4803 ;; This function uses a non-reentrant model
  4804 ;;
  4805                           
  4806                           
  4807                           ;psect for function _cntdisp
  4808  0C7B                     _cntdisp:	
  4809                           
  4810                           ;incstack = 0
  4811                           ; Regs used in _cntdisp: [wreg-fsr0h+status,2+status,0+pclath+cstack]
  4812                           ;cntdisp@datac stored from wreg
  4813  0C7B  1283               	bcf	3,5	;RP0=0, select bank0
  4814  0C7C  1303               	bcf	3,6	;RP1=0, select bank0
  4815  0C7D  00B0               	movwf	cntdisp@datac
  4816  0C7E                     l4185:	
  4817                           
  4818                           ;LabLCDisp.c: 166:     int vals;;LabLCDisp.c: 167:     int ent1;;LabLCDisp.c: 168:     i
      +                          nt ent2;;LabLCDisp.c: 169:     int ent3;;LabLCDisp.c: 170:     ent3 = datac%10;
  4819  0C7E  300A               	movlw	10
  4820  0C7F  00A0               	movwf	___awmod@divisor
  4821  0C80  3000               	movlw	0
  4822  0C81  00A1               	movwf	___awmod@divisor+1
  4823  0C82  0830               	movf	cntdisp@datac,w
  4824  0C83  00A8               	movwf	??_cntdisp
  4825  0C84  01A9               	clrf	??_cntdisp+1
  4826  0C85  0828               	movf	??_cntdisp,w
  4827  0C86  00A2               	movwf	___awmod@dividend
  4828  0C87  0829               	movf	??_cntdisp+1,w
  4829  0C88  00A3               	movwf	___awmod@dividend+1
  4830  0C89  120A  158A  20D4  120A  158A  	fcall	___awmod
  4831  0C8E  1283               	bcf	3,5	;RP0=0, select bank0
  4832  0C8F  1303               	bcf	3,6	;RP1=0, select bank0
  4833  0C90  0821               	movf	?___awmod+1,w
  4834  0C91  00AF               	movwf	cntdisp@ent3+1
  4835  0C92  0820               	movf	?___awmod,w
  4836  0C93  00AE               	movwf	cntdisp@ent3
  4837                           
  4838                           ;LabLCDisp.c: 171:     vals = datac/10;
  4839  0C94  300A               	movlw	10
  4840  0C95  00A0               	movwf	___awdiv@divisor
  4841  0C96  3000               	movlw	0
  4842  0C97  00A1               	movwf	___awdiv@divisor+1
  4843  0C98  0830               	movf	cntdisp@datac,w
  4844  0C99  00A8               	movwf	??_cntdisp
  4845  0C9A  01A9               	clrf	??_cntdisp+1
  4846  0C9B  0828               	movf	??_cntdisp,w
  4847  0C9C  00A2               	movwf	___awdiv@dividend
  4848  0C9D  0829               	movf	??_cntdisp+1,w
  4849  0C9E  00A3               	movwf	___awdiv@dividend+1
  4850  0C9F  120A  158A  212F  120A  158A  	fcall	___awdiv
  4851  0CA4  1283               	bcf	3,5	;RP0=0, select bank0
  4852  0CA5  1303               	bcf	3,6	;RP1=0, select bank0
  4853  0CA6  0821               	movf	?___awdiv+1,w
  4854  0CA7  00B2               	movwf	cntdisp@vals+1
  4855  0CA8  0820               	movf	?___awdiv,w
  4856  0CA9  00B1               	movwf	cntdisp@vals
  4857                           
  4858                           ;LabLCDisp.c: 172:     ent2 = vals%10;
  4859  0CAA  300A               	movlw	10
  4860  0CAB  00A0               	movwf	___awmod@divisor
  4861  0CAC  3000               	movlw	0
  4862  0CAD  00A1               	movwf	___awmod@divisor+1
  4863  0CAE  0832               	movf	cntdisp@vals+1,w
  4864  0CAF  00A3               	movwf	___awmod@dividend+1
  4865  0CB0  0831               	movf	cntdisp@vals,w
  4866  0CB1  00A2               	movwf	___awmod@dividend
  4867  0CB2  120A  158A  20D4  120A  158A  	fcall	___awmod
  4868  0CB7  1283               	bcf	3,5	;RP0=0, select bank0
  4869  0CB8  1303               	bcf	3,6	;RP1=0, select bank0
  4870  0CB9  0821               	movf	?___awmod+1,w
  4871  0CBA  00AD               	movwf	cntdisp@ent2+1
  4872  0CBB  0820               	movf	?___awmod,w
  4873  0CBC  00AC               	movwf	cntdisp@ent2
  4874                           
  4875                           ;LabLCDisp.c: 173:     ent1 = vals/10;
  4876  0CBD  300A               	movlw	10
  4877  0CBE  00A0               	movwf	___awdiv@divisor
  4878  0CBF  3000               	movlw	0
  4879  0CC0  00A1               	movwf	___awdiv@divisor+1
  4880  0CC1  0832               	movf	cntdisp@vals+1,w
  4881  0CC2  00A3               	movwf	___awdiv@dividend+1
  4882  0CC3  0831               	movf	cntdisp@vals,w
  4883  0CC4  00A2               	movwf	___awdiv@dividend
  4884  0CC5  120A  158A  212F  120A  158A  	fcall	___awdiv
  4885  0CCA  1283               	bcf	3,5	;RP0=0, select bank0
  4886  0CCB  1303               	bcf	3,6	;RP1=0, select bank0
  4887  0CCC  0821               	movf	?___awdiv+1,w
  4888  0CCD  00AB               	movwf	cntdisp@ent1+1
  4889  0CCE  0820               	movf	?___awdiv,w
  4890  0CCF  00AA               	movwf	cntdisp@ent1
  4891                           
  4892                           ;LabLCDisp.c: 174:     lcd_cursor_set(2,13);
  4893  0CD0  300D               	movlw	13
  4894  0CD1  00A8               	movwf	??_cntdisp
  4895  0CD2  0828               	movf	??_cntdisp,w
  4896  0CD3  00A2               	movwf	lcd_cursor_set@y
  4897  0CD4  3002               	movlw	2
  4898  0CD5  160A  118A  27B1  120A  158A  	fcall	_lcd_cursor_set
  4899                           
  4900                           ;LabLCDisp.c: 175:     switch (ent1){
  4901  0CDA  2D21               	goto	l4209
  4902  0CDB                     l4187:	
  4903                           
  4904                           ;LabLCDisp.c: 177:             lcd_wstring("0");
  4905  0CDB  3010               	movlw	(low ((STR_4-__stringbase)| (0+32768)))& (0+255)
  4906  0CDC  160A  118A  27D7  120A  158A  	fcall	_lcd_wstring
  4907                           
  4908                           ;LabLCDisp.c: 178:             break;
  4909  0CE1  2D8E               	goto	l4233
  4910  0CE2                     l4189:	
  4911                           
  4912                           ;LabLCDisp.c: 180:             lcd_wstring("1");
  4913  0CE2  3008               	movlw	(low (((STR_1+2)-__stringbase)| (0+32768)))& (0+255)
  4914  0CE3  160A  118A  27D7  120A  158A  	fcall	_lcd_wstring
  4915                           
  4916                           ;LabLCDisp.c: 181:             break;
  4917  0CE8  2D8E               	goto	l4233
  4918  0CE9                     l4191:	
  4919                           
  4920                           ;LabLCDisp.c: 183:             lcd_wstring("2");
  4921  0CE9  300C               	movlw	(low (((STR_2+2)-__stringbase)| (0+32768)))& (0+255)
  4922  0CEA  160A  118A  27D7  120A  158A  	fcall	_lcd_wstring
  4923                           
  4924                           ;LabLCDisp.c: 184:             break;
  4925  0CEF  2D8E               	goto	l4233
  4926  0CF0                     l4193:	
  4927                           
  4928                           ;LabLCDisp.c: 186:             lcd_wstring("3");
  4929  0CF0  3012               	movlw	(low ((STR_7-__stringbase)| (0+32768)))& (0+255)
  4930  0CF1  160A  118A  27D7  120A  158A  	fcall	_lcd_wstring
  4931                           
  4932                           ;LabLCDisp.c: 187:             break;
  4933  0CF6  2D8E               	goto	l4233
  4934  0CF7                     l4195:	
  4935                           
  4936                           ;LabLCDisp.c: 189:             lcd_wstring("4");
  4937  0CF7  3014               	movlw	(low ((STR_8-__stringbase)| (0+32768)))& (0+255)
  4938  0CF8  160A  118A  27D7  120A  158A  	fcall	_lcd_wstring
  4939                           
  4940                           ;LabLCDisp.c: 190:             break;
  4941  0CFD  2D8E               	goto	l4233
  4942  0CFE                     l4197:	
  4943                           
  4944                           ;LabLCDisp.c: 192:             lcd_wstring("5");
  4945  0CFE  3016               	movlw	(low ((STR_9-__stringbase)| (0+32768)))& (0+255)
  4946  0CFF  160A  118A  27D7  120A  158A  	fcall	_lcd_wstring
  4947                           
  4948                           ;LabLCDisp.c: 193:             break;
  4949  0D04  2D8E               	goto	l4233
  4950  0D05                     l4199:	
  4951                           
  4952                           ;LabLCDisp.c: 195:             lcd_wstring("6");
  4953  0D05  3018               	movlw	(low ((STR_10-__stringbase)| (0+32768)))& (0+255)
  4954  0D06  160A  118A  27D7  120A  158A  	fcall	_lcd_wstring
  4955                           
  4956                           ;LabLCDisp.c: 196:             break;
  4957  0D0B  2D8E               	goto	l4233
  4958  0D0C                     l4201:	
  4959                           
  4960                           ;LabLCDisp.c: 198:             lcd_wstring("7");
  4961  0D0C  301A               	movlw	(low ((STR_11-__stringbase)| (0+32768)))& (0+255)
  4962  0D0D  160A  118A  27D7  120A  158A  	fcall	_lcd_wstring
  4963                           
  4964                           ;LabLCDisp.c: 199:             break;
  4965  0D12  2D8E               	goto	l4233
  4966  0D13                     l4203:	
  4967                           
  4968                           ;LabLCDisp.c: 201:             lcd_wstring("8");
  4969  0D13  301C               	movlw	(low ((STR_12-__stringbase)| (0+32768)))& (0+255)
  4970  0D14  160A  118A  27D7  120A  158A  	fcall	_lcd_wstring
  4971                           
  4972                           ;LabLCDisp.c: 202:             break;
  4973  0D19  2D8E               	goto	l4233
  4974  0D1A                     l4205:	
  4975                           
  4976                           ;LabLCDisp.c: 204:             lcd_wstring("9");
  4977  0D1A  301E               	movlw	(low ((STR_13-__stringbase)| (0+32768)))& (0+255)
  4978  0D1B  160A  118A  27D7  120A  158A  	fcall	_lcd_wstring
  4979                           
  4980                           ;LabLCDisp.c: 205:             break;
  4981  0D20  2D8E               	goto	l4233
  4982  0D21                     l4209:	
  4983                           
  4984                           ; Switch on 2 bytes has been partitioned into a top level switch of size 1, and 1 sub-sw
      +                          itches
  4985                           ; Switch size 1, requested type "simple"
  4986                           ; Number of cases is 1, Range of values is 0 to 0
  4987                           ; switch strategies available:
  4988                           ; Name         Instructions Cycles
  4989                           ; simple_byte            4     3 (average)
  4990                           ; direct_byte           11     8 (fixed)
  4991                           ; jumptable            260     6 (fixed)
  4992                           ;	Chosen strategy is simple_byte
  4993  0D21  1283               	bcf	3,5	;RP0=0, select bank0
  4994  0D22  1303               	bcf	3,6	;RP1=0, select bank0
  4995  0D23  082B               	movf	cntdisp@ent1+1,w
  4996  0D24  3A00               	xorlw	0	; case 0
  4997  0D25  1903               	skipnz
  4998  0D26  2D28               	goto	l4633
  4999  0D27  2D8E               	goto	l4233
  5000  0D28                     l4633:	
  5001                           
  5002                           ; Switch size 1, requested type "simple"
  5003                           ; Number of cases is 10, Range of values is 0 to 9
  5004                           ; switch strategies available:
  5005                           ; Name         Instructions Cycles
  5006                           ; simple_byte           31    16 (average)
  5007                           ; direct_byte           38     8 (fixed)
  5008                           ; jumptable            260     6 (fixed)
  5009                           ;	Chosen strategy is simple_byte
  5010  0D28  082A               	movf	cntdisp@ent1,w
  5011  0D29  3A00               	xorlw	0	; case 0
  5012  0D2A  1903               	skipnz
  5013  0D2B  2CDB               	goto	l4187
  5014  0D2C  3A01               	xorlw	1	; case 1
  5015  0D2D  1903               	skipnz
  5016  0D2E  2CE2               	goto	l4189
  5017  0D2F  3A03               	xorlw	3	; case 2
  5018  0D30  1903               	skipnz
  5019  0D31  2CE9               	goto	l4191
  5020  0D32  3A01               	xorlw	1	; case 3
  5021  0D33  1903               	skipnz
  5022  0D34  2CF0               	goto	l4193
  5023  0D35  3A07               	xorlw	7	; case 4
  5024  0D36  1903               	skipnz
  5025  0D37  2CF7               	goto	l4195
  5026  0D38  3A01               	xorlw	1	; case 5
  5027  0D39  1903               	skipnz
  5028  0D3A  2CFE               	goto	l4197
  5029  0D3B  3A03               	xorlw	3	; case 6
  5030  0D3C  1903               	skipnz
  5031  0D3D  2D05               	goto	l4199
  5032  0D3E  3A01               	xorlw	1	; case 7
  5033  0D3F  1903               	skipnz
  5034  0D40  2D0C               	goto	l4201
  5035  0D41  3A0F               	xorlw	15	; case 8
  5036  0D42  1903               	skipnz
  5037  0D43  2D13               	goto	l4203
  5038  0D44  3A01               	xorlw	1	; case 9
  5039  0D45  1903               	skipnz
  5040  0D46  2D1A               	goto	l4205
  5041  0D47  2D8E               	goto	l4233
  5042  0D48                     l4211:	
  5043                           
  5044                           ;LabLCDisp.c: 209:             lcd_wstring("0");
  5045  0D48  3010               	movlw	(low ((STR_4-__stringbase)| (0+32768)))& (0+255)
  5046  0D49  160A  118A  27D7  120A  158A  	fcall	_lcd_wstring
  5047                           
  5048                           ;LabLCDisp.c: 210:             break;
  5049  0D4E  2DFB               	goto	l4257
  5050  0D4F                     l4213:	
  5051                           
  5052                           ;LabLCDisp.c: 212:             lcd_wstring("1");
  5053  0D4F  3008               	movlw	(low (((STR_1+2)-__stringbase)| (0+32768)))& (0+255)
  5054  0D50  160A  118A  27D7  120A  158A  	fcall	_lcd_wstring
  5055                           
  5056                           ;LabLCDisp.c: 213:             break;
  5057  0D55  2DFB               	goto	l4257
  5058  0D56                     l4215:	
  5059                           
  5060                           ;LabLCDisp.c: 215:             lcd_wstring("2");
  5061  0D56  300C               	movlw	(low (((STR_2+2)-__stringbase)| (0+32768)))& (0+255)
  5062  0D57  160A  118A  27D7  120A  158A  	fcall	_lcd_wstring
  5063                           
  5064                           ;LabLCDisp.c: 216:             break;
  5065  0D5C  2DFB               	goto	l4257
  5066  0D5D                     l4217:	
  5067                           
  5068                           ;LabLCDisp.c: 218:             lcd_wstring("3");
  5069  0D5D  3012               	movlw	(low ((STR_7-__stringbase)| (0+32768)))& (0+255)
  5070  0D5E  160A  118A  27D7  120A  158A  	fcall	_lcd_wstring
  5071                           
  5072                           ;LabLCDisp.c: 219:             break;
  5073  0D63  2DFB               	goto	l4257
  5074  0D64                     l4219:	
  5075                           
  5076                           ;LabLCDisp.c: 221:             lcd_wstring("4");
  5077  0D64  3014               	movlw	(low ((STR_8-__stringbase)| (0+32768)))& (0+255)
  5078  0D65  160A  118A  27D7  120A  158A  	fcall	_lcd_wstring
  5079                           
  5080                           ;LabLCDisp.c: 222:             break;
  5081  0D6A  2DFB               	goto	l4257
  5082  0D6B                     l4221:	
  5083                           
  5084                           ;LabLCDisp.c: 224:             lcd_wstring("5");
  5085  0D6B  3016               	movlw	(low ((STR_9-__stringbase)| (0+32768)))& (0+255)
  5086  0D6C  160A  118A  27D7  120A  158A  	fcall	_lcd_wstring
  5087                           
  5088                           ;LabLCDisp.c: 225:             break;
  5089  0D71  2DFB               	goto	l4257
  5090  0D72                     l4223:	
  5091                           
  5092                           ;LabLCDisp.c: 227:             lcd_wstring("6");
  5093  0D72  3018               	movlw	(low ((STR_10-__stringbase)| (0+32768)))& (0+255)
  5094  0D73  160A  118A  27D7  120A  158A  	fcall	_lcd_wstring
  5095                           
  5096                           ;LabLCDisp.c: 228:             break;
  5097  0D78  2DFB               	goto	l4257
  5098  0D79                     l4225:	
  5099                           
  5100                           ;LabLCDisp.c: 230:             lcd_wstring("7");
  5101  0D79  301A               	movlw	(low ((STR_11-__stringbase)| (0+32768)))& (0+255)
  5102  0D7A  160A  118A  27D7  120A  158A  	fcall	_lcd_wstring
  5103                           
  5104                           ;LabLCDisp.c: 231:             break;
  5105  0D7F  2DFB               	goto	l4257
  5106  0D80                     l4227:	
  5107                           
  5108                           ;LabLCDisp.c: 233:             lcd_wstring("8");
  5109  0D80  301C               	movlw	(low ((STR_12-__stringbase)| (0+32768)))& (0+255)
  5110  0D81  160A  118A  27D7  120A  158A  	fcall	_lcd_wstring
  5111                           
  5112                           ;LabLCDisp.c: 234:             break;
  5113  0D86  2DFB               	goto	l4257
  5114  0D87                     l4229:	
  5115                           
  5116                           ;LabLCDisp.c: 236:             lcd_wstring("9");
  5117  0D87  301E               	movlw	(low ((STR_13-__stringbase)| (0+32768)))& (0+255)
  5118  0D88  160A  118A  27D7  120A  158A  	fcall	_lcd_wstring
  5119                           
  5120                           ;LabLCDisp.c: 237:             break;
  5121  0D8D  2DFB               	goto	l4257
  5122  0D8E                     l4233:	
  5123                           
  5124                           ; Switch on 2 bytes has been partitioned into a top level switch of size 1, and 1 sub-sw
      +                          itches
  5125                           ; Switch size 1, requested type "simple"
  5126                           ; Number of cases is 1, Range of values is 0 to 0
  5127                           ; switch strategies available:
  5128                           ; Name         Instructions Cycles
  5129                           ; simple_byte            4     3 (average)
  5130                           ; direct_byte           11     8 (fixed)
  5131                           ; jumptable            260     6 (fixed)
  5132                           ;	Chosen strategy is simple_byte
  5133  0D8E  1283               	bcf	3,5	;RP0=0, select bank0
  5134  0D8F  1303               	bcf	3,6	;RP1=0, select bank0
  5135  0D90  082D               	movf	cntdisp@ent2+1,w
  5136  0D91  3A00               	xorlw	0	; case 0
  5137  0D92  1903               	skipnz
  5138  0D93  2D95               	goto	l4635
  5139  0D94  2DFB               	goto	l4257
  5140  0D95                     l4635:	
  5141                           
  5142                           ; Switch size 1, requested type "simple"
  5143                           ; Number of cases is 10, Range of values is 0 to 9
  5144                           ; switch strategies available:
  5145                           ; Name         Instructions Cycles
  5146                           ; simple_byte           31    16 (average)
  5147                           ; direct_byte           38     8 (fixed)
  5148                           ; jumptable            260     6 (fixed)
  5149                           ;	Chosen strategy is simple_byte
  5150  0D95  082C               	movf	cntdisp@ent2,w
  5151  0D96  3A00               	xorlw	0	; case 0
  5152  0D97  1903               	skipnz
  5153  0D98  2D48               	goto	l4211
  5154  0D99  3A01               	xorlw	1	; case 1
  5155  0D9A  1903               	skipnz
  5156  0D9B  2D4F               	goto	l4213
  5157  0D9C  3A03               	xorlw	3	; case 2
  5158  0D9D  1903               	skipnz
  5159  0D9E  2D56               	goto	l4215
  5160  0D9F  3A01               	xorlw	1	; case 3
  5161  0DA0  1903               	skipnz
  5162  0DA1  2D5D               	goto	l4217
  5163  0DA2  3A07               	xorlw	7	; case 4
  5164  0DA3  1903               	skipnz
  5165  0DA4  2D64               	goto	l4219
  5166  0DA5  3A01               	xorlw	1	; case 5
  5167  0DA6  1903               	skipnz
  5168  0DA7  2D6B               	goto	l4221
  5169  0DA8  3A03               	xorlw	3	; case 6
  5170  0DA9  1903               	skipnz
  5171  0DAA  2D72               	goto	l4223
  5172  0DAB  3A01               	xorlw	1	; case 7
  5173  0DAC  1903               	skipnz
  5174  0DAD  2D79               	goto	l4225
  5175  0DAE  3A0F               	xorlw	15	; case 8
  5176  0DAF  1903               	skipnz
  5177  0DB0  2D80               	goto	l4227
  5178  0DB1  3A01               	xorlw	1	; case 9
  5179  0DB2  1903               	skipnz
  5180  0DB3  2D87               	goto	l4229
  5181  0DB4  2DFB               	goto	l4257
  5182  0DB5                     l4235:	
  5183                           
  5184                           ;LabLCDisp.c: 241:             lcd_wstring("0");
  5185  0DB5  3010               	movlw	(low ((STR_4-__stringbase)| (0+32768)))& (0+255)
  5186  0DB6  160A  118A  27D7  120A  158A  	fcall	_lcd_wstring
  5187                           
  5188                           ;LabLCDisp.c: 242:             break;
  5189  0DBB  2E22               	goto	l229
  5190  0DBC                     l4237:	
  5191                           
  5192                           ;LabLCDisp.c: 244:             lcd_wstring("1");
  5193  0DBC  3008               	movlw	(low (((STR_1+2)-__stringbase)| (0+32768)))& (0+255)
  5194  0DBD  160A  118A  27D7  120A  158A  	fcall	_lcd_wstring
  5195                           
  5196                           ;LabLCDisp.c: 245:             break;
  5197  0DC2  2E22               	goto	l229
  5198  0DC3                     l4239:	
  5199                           
  5200                           ;LabLCDisp.c: 247:             lcd_wstring("2");
  5201  0DC3  300C               	movlw	(low (((STR_2+2)-__stringbase)| (0+32768)))& (0+255)
  5202  0DC4  160A  118A  27D7  120A  158A  	fcall	_lcd_wstring
  5203                           
  5204                           ;LabLCDisp.c: 248:             break;
  5205  0DC9  2E22               	goto	l229
  5206  0DCA                     l4241:	
  5207                           
  5208                           ;LabLCDisp.c: 250:             lcd_wstring("3");
  5209  0DCA  3012               	movlw	(low ((STR_7-__stringbase)| (0+32768)))& (0+255)
  5210  0DCB  160A  118A  27D7  120A  158A  	fcall	_lcd_wstring
  5211                           
  5212                           ;LabLCDisp.c: 251:             break;
  5213  0DD0  2E22               	goto	l229
  5214  0DD1                     l4243:	
  5215                           
  5216                           ;LabLCDisp.c: 253:             lcd_wstring("4");
  5217  0DD1  3014               	movlw	(low ((STR_8-__stringbase)| (0+32768)))& (0+255)
  5218  0DD2  160A  118A  27D7  120A  158A  	fcall	_lcd_wstring
  5219                           
  5220                           ;LabLCDisp.c: 254:             break;
  5221  0DD7  2E22               	goto	l229
  5222  0DD8                     l4245:	
  5223                           
  5224                           ;LabLCDisp.c: 256:             lcd_wstring("5");
  5225  0DD8  3016               	movlw	(low ((STR_9-__stringbase)| (0+32768)))& (0+255)
  5226  0DD9  160A  118A  27D7  120A  158A  	fcall	_lcd_wstring
  5227                           
  5228                           ;LabLCDisp.c: 257:             break;
  5229  0DDE  2E22               	goto	l229
  5230  0DDF                     l4247:	
  5231                           
  5232                           ;LabLCDisp.c: 259:             lcd_wstring("6");
  5233  0DDF  3018               	movlw	(low ((STR_10-__stringbase)| (0+32768)))& (0+255)
  5234  0DE0  160A  118A  27D7  120A  158A  	fcall	_lcd_wstring
  5235                           
  5236                           ;LabLCDisp.c: 260:             break;
  5237  0DE5  2E22               	goto	l229
  5238  0DE6                     l4249:	
  5239                           
  5240                           ;LabLCDisp.c: 262:             lcd_wstring("7");
  5241  0DE6  301A               	movlw	(low ((STR_11-__stringbase)| (0+32768)))& (0+255)
  5242  0DE7  160A  118A  27D7  120A  158A  	fcall	_lcd_wstring
  5243                           
  5244                           ;LabLCDisp.c: 263:             break;
  5245  0DEC  2E22               	goto	l229
  5246  0DED                     l4251:	
  5247                           
  5248                           ;LabLCDisp.c: 265:             lcd_wstring("8");
  5249  0DED  301C               	movlw	(low ((STR_12-__stringbase)| (0+32768)))& (0+255)
  5250  0DEE  160A  118A  27D7  120A  158A  	fcall	_lcd_wstring
  5251                           
  5252                           ;LabLCDisp.c: 266:             break;
  5253  0DF3  2E22               	goto	l229
  5254  0DF4                     l4253:	
  5255                           
  5256                           ;LabLCDisp.c: 268:             lcd_wstring("9");
  5257  0DF4  301E               	movlw	(low ((STR_13-__stringbase)| (0+32768)))& (0+255)
  5258  0DF5  160A  118A  27D7  120A  158A  	fcall	_lcd_wstring
  5259                           
  5260                           ;LabLCDisp.c: 269:             break;
  5261  0DFA  2E22               	goto	l229
  5262  0DFB                     l4257:	
  5263                           
  5264                           ; Switch on 2 bytes has been partitioned into a top level switch of size 1, and 1 sub-sw
      +                          itches
  5265                           ; Switch size 1, requested type "simple"
  5266                           ; Number of cases is 1, Range of values is 0 to 0
  5267                           ; switch strategies available:
  5268                           ; Name         Instructions Cycles
  5269                           ; simple_byte            4     3 (average)
  5270                           ; direct_byte           11     8 (fixed)
  5271                           ; jumptable            260     6 (fixed)
  5272                           ;	Chosen strategy is simple_byte
  5273  0DFB  1283               	bcf	3,5	;RP0=0, select bank0
  5274  0DFC  1303               	bcf	3,6	;RP1=0, select bank0
  5275  0DFD  082F               	movf	cntdisp@ent3+1,w
  5276  0DFE  3A00               	xorlw	0	; case 0
  5277  0DFF  1903               	skipnz
  5278  0E00  2E02               	goto	l4637
  5279  0E01  2E22               	goto	l229
  5280  0E02                     l4637:	
  5281                           
  5282                           ; Switch size 1, requested type "simple"
  5283                           ; Number of cases is 10, Range of values is 0 to 9
  5284                           ; switch strategies available:
  5285                           ; Name         Instructions Cycles
  5286                           ; simple_byte           31    16 (average)
  5287                           ; direct_byte           38     8 (fixed)
  5288                           ; jumptable            260     6 (fixed)
  5289                           ;	Chosen strategy is simple_byte
  5290  0E02  082E               	movf	cntdisp@ent3,w
  5291  0E03  3A00               	xorlw	0	; case 0
  5292  0E04  1903               	skipnz
  5293  0E05  2DB5               	goto	l4235
  5294  0E06  3A01               	xorlw	1	; case 1
  5295  0E07  1903               	skipnz
  5296  0E08  2DBC               	goto	l4237
  5297  0E09  3A03               	xorlw	3	; case 2
  5298  0E0A  1903               	skipnz
  5299  0E0B  2DC3               	goto	l4239
  5300  0E0C  3A01               	xorlw	1	; case 3
  5301  0E0D  1903               	skipnz
  5302  0E0E  2DCA               	goto	l4241
  5303  0E0F  3A07               	xorlw	7	; case 4
  5304  0E10  1903               	skipnz
  5305  0E11  2DD1               	goto	l4243
  5306  0E12  3A01               	xorlw	1	; case 5
  5307  0E13  1903               	skipnz
  5308  0E14  2DD8               	goto	l4245
  5309  0E15  3A03               	xorlw	3	; case 6
  5310  0E16  1903               	skipnz
  5311  0E17  2DDF               	goto	l4247
  5312  0E18  3A01               	xorlw	1	; case 7
  5313  0E19  1903               	skipnz
  5314  0E1A  2DE6               	goto	l4249
  5315  0E1B  3A0F               	xorlw	15	; case 8
  5316  0E1C  1903               	skipnz
  5317  0E1D  2DED               	goto	l4251
  5318  0E1E  3A01               	xorlw	1	; case 9
  5319  0E1F  1903               	skipnz
  5320  0E20  2DF4               	goto	l4253
  5321  0E21  2E22               	goto	l229
  5322  0E22                     l229:	
  5323  0E22  0008               	return
  5324  0E23                     __end_of_cntdisp:	
  5325                           
  5326                           	psect	text12
  5327  17D7                     __ptext12:	
  5328 ;; *************** function _lcd_wstring *****************
  5329 ;; Defined at:
  5330 ;;		line 151 in file "LCDISPLIBLB3.c"
  5331 ;; Parameters:    Size  Location     Type
  5332 ;;  a               1    wreg     PTR unsigned char 
  5333 ;;		 -> STR_97(2), STR_96(2), STR_95(2), STR_94(2), 
  5334 ;;		 -> STR_93(2), STR_92(2), STR_91(2), STR_90(2), 
  5335 ;;		 -> STR_89(2), STR_88(2), STR_87(2), STR_86(2), 
  5336 ;;		 -> STR_85(2), STR_84(2), STR_83(2), STR_82(2), 
  5337 ;;		 -> STR_81(2), STR_80(2), STR_79(2), STR_78(2), 
  5338 ;;		 -> STR_77(2), STR_76(2), STR_75(2), STR_74(2), 
  5339 ;;		 -> STR_73(2), STR_72(2), STR_71(2), STR_70(2), 
  5340 ;;		 -> STR_69(2), STR_68(2), STR_67(2), STR_66(2), 
  5341 ;;		 -> STR_65(2), STR_64(2), STR_63(2), STR_62(2), 
  5342 ;;		 -> STR_61(2), STR_60(2), STR_59(2), STR_58(2), 
  5343 ;;		 -> STR_57(2), STR_56(2), STR_55(2), STR_54(2), 
  5344 ;;		 -> STR_53(2), STR_52(2), STR_51(2), STR_50(2), 
  5345 ;;		 -> STR_49(2), STR_48(2), STR_47(2), STR_46(2), 
  5346 ;;		 -> STR_45(2), STR_44(2), STR_43(2), STR_42(2), 
  5347 ;;		 -> STR_41(2), STR_40(2), STR_39(2), STR_38(2), 
  5348 ;;		 -> STR_37(2), STR_36(2), STR_35(2), STR_34(2), 
  5349 ;;		 -> STR_33(2), STR_32(2), STR_31(2), STR_30(2), 
  5350 ;;		 -> STR_29(2), STR_28(2), STR_27(2), STR_26(2), 
  5351 ;;		 -> STR_25(2), STR_24(2), STR_23(2), STR_22(2), 
  5352 ;;		 -> STR_21(2), STR_20(2), STR_19(2), STR_18(2), 
  5353 ;;		 -> STR_17(2), STR_16(2), STR_15(2), STR_14(2), 
  5354 ;;		 -> STR_13(2), STR_12(2), STR_11(2), STR_10(2), 
  5355 ;;		 -> STR_9(2), STR_8(2), STR_7(2), STR_6(2), 
  5356 ;;		 -> STR_5(2), STR_4(2), STR_3(5), STR_2(4), 
  5357 ;;		 -> STR_1(4), 
  5358 ;; Auto vars:     Size  Location     Type
  5359 ;;  a               1    4[BANK0 ] PTR unsigned char 
  5360 ;;		 -> STR_97(2), STR_96(2), STR_95(2), STR_94(2), 
  5361 ;;		 -> STR_93(2), STR_92(2), STR_91(2), STR_90(2), 
  5362 ;;		 -> STR_89(2), STR_88(2), STR_87(2), STR_86(2), 
  5363 ;;		 -> STR_85(2), STR_84(2), STR_83(2), STR_82(2), 
  5364 ;;		 -> STR_81(2), STR_80(2), STR_79(2), STR_78(2), 
  5365 ;;		 -> STR_77(2), STR_76(2), STR_75(2), STR_74(2), 
  5366 ;;		 -> STR_73(2), STR_72(2), STR_71(2), STR_70(2), 
  5367 ;;		 -> STR_69(2), STR_68(2), STR_67(2), STR_66(2), 
  5368 ;;		 -> STR_65(2), STR_64(2), STR_63(2), STR_62(2), 
  5369 ;;		 -> STR_61(2), STR_60(2), STR_59(2), STR_58(2), 
  5370 ;;		 -> STR_57(2), STR_56(2), STR_55(2), STR_54(2), 
  5371 ;;		 -> STR_53(2), STR_52(2), STR_51(2), STR_50(2), 
  5372 ;;		 -> STR_49(2), STR_48(2), STR_47(2), STR_46(2), 
  5373 ;;		 -> STR_45(2), STR_44(2), STR_43(2), STR_42(2), 
  5374 ;;		 -> STR_41(2), STR_40(2), STR_39(2), STR_38(2), 
  5375 ;;		 -> STR_37(2), STR_36(2), STR_35(2), STR_34(2), 
  5376 ;;		 -> STR_33(2), STR_32(2), STR_31(2), STR_30(2), 
  5377 ;;		 -> STR_29(2), STR_28(2), STR_27(2), STR_26(2), 
  5378 ;;		 -> STR_25(2), STR_24(2), STR_23(2), STR_22(2), 
  5379 ;;		 -> STR_21(2), STR_20(2), STR_19(2), STR_18(2), 
  5380 ;;		 -> STR_17(2), STR_16(2), STR_15(2), STR_14(2), 
  5381 ;;		 -> STR_13(2), STR_12(2), STR_11(2), STR_10(2), 
  5382 ;;		 -> STR_9(2), STR_8(2), STR_7(2), STR_6(2), 
  5383 ;;		 -> STR_5(2), STR_4(2), STR_3(5), STR_2(4), 
  5384 ;;		 -> STR_1(4), 
  5385 ;;  i               2    2[BANK0 ] int 
  5386 ;; Return value:  Size  Location     Type
  5387 ;;                  1    wreg      void 
  5388 ;; Registers used:
  5389 ;;		wreg, fsr0l, fsr0h, status,2, status,0, pclath, cstack
  5390 ;; Tracked objects:
  5391 ;;		On entry : 0/0
  5392 ;;		On exit  : 0/0
  5393 ;;		Unchanged: 0/0
  5394 ;; Data sizes:     COMMON   BANK0   BANK1   BANK3   BANK2
  5395 ;;      Params:         0       0       0       0       0
  5396 ;;      Locals:         0       3       0       0       0
  5397 ;;      Temps:          0       0       0       0       0
  5398 ;;      Totals:         0       3       0       0       0
  5399 ;;Total ram usage:        3 bytes
  5400 ;; Hardware stack levels used:    1
  5401 ;; Hardware stack levels required when called:    3
  5402 ;; This function calls:
  5403 ;;		_lcd_writechar
  5404 ;; This function is called by:
  5405 ;;		_main
  5406 ;;		_cntdisp
  5407 ;;		_dispval1
  5408 ;;		_dispval2
  5409 ;; This function uses a non-reentrant model
  5410 ;;
  5411                           
  5412                           
  5413                           ;psect for function _lcd_wstring
  5414  17D7                     _lcd_wstring:	
  5415                           
  5416                           ;incstack = 0
  5417                           ; Regs used in _lcd_wstring: [wreg-fsr0h+status,2+status,0+pclath+cstack]
  5418                           ;lcd_wstring@a stored from wreg
  5419  17D7  1283               	bcf	3,5	;RP0=0, select bank0
  5420  17D8  1303               	bcf	3,6	;RP1=0, select bank0
  5421  17D9  00A4               	movwf	lcd_wstring@a
  5422  17DA                     l3649:	
  5423                           
  5424                           ;LCDISPLIBLB3.c: 151: void lcd_wstring(char *a);LCDISPLIBLB3.c: 152: {;LCDISPLIBLB3.c: 1
      +                          53:  int i;;LCDISPLIBLB3.c: 154:  for(i=0;a[i]!='\0';i++)
  5425  17DA  01A2               	clrf	lcd_wstring@i
  5426  17DB  01A3               	clrf	lcd_wstring@i+1
  5427  17DC  2FF2               	goto	l3655
  5428  17DD                     l3651:	
  5429                           
  5430                           ;LCDISPLIBLB3.c: 155:     lcd_writechar(a[i]);
  5431  17DD  0822               	movf	lcd_wstring@i,w
  5432  17DE  0724               	addwf	lcd_wstring@a,w
  5433  17DF  0084               	movwf	4
  5434  17E0  160A  118A  2000  160A  118A  	fcall	stringdir
  5435  17E5  160A  118A  2769  160A  118A  	fcall	_lcd_writechar
  5436  17EA                     l3653:	
  5437  17EA  3001               	movlw	1
  5438  17EB  1283               	bcf	3,5	;RP0=0, select bank0
  5439  17EC  1303               	bcf	3,6	;RP1=0, select bank0
  5440  17ED  07A2               	addwf	lcd_wstring@i,f
  5441  17EE  1803               	skipnc
  5442  17EF  0AA3               	incf	lcd_wstring@i+1,f
  5443  17F0  3000               	movlw	0
  5444  17F1  07A3               	addwf	lcd_wstring@i+1,f
  5445  17F2                     l3655:	
  5446  17F2  0822               	movf	lcd_wstring@i,w
  5447  17F3  0724               	addwf	lcd_wstring@a,w
  5448  17F4  0084               	movwf	4
  5449  17F5  160A  118A  2000  160A  118A  	fcall	stringdir
  5450  17FA  3A00               	xorlw	0
  5451  17FB  1D03               	skipz
  5452  17FC  2FFE               	goto	u2741
  5453  17FD  2FFF               	goto	u2740
  5454  17FE                     u2741:	
  5455  17FE  2FDD               	goto	l3651
  5456  17FF                     u2740:	
  5457  17FF                     l74:	
  5458  17FF  0008               	return
  5459  1800                     __end_of_lcd_wstring:	
  5460                           
  5461                           	psect	text13
  5462  1769                     __ptext13:	
  5463 ;; *************** function _lcd_writechar *****************
  5464 ;; Defined at:
  5465 ;;		line 123 in file "LCDISPLIBLB3.c"
  5466 ;; Parameters:    Size  Location     Type
  5467 ;;  m               1    wreg     unsigned char 
  5468 ;; Auto vars:     Size  Location     Type
  5469 ;;  m               1    6[COMMON] unsigned char 
  5470 ;; Return value:  Size  Location     Type
  5471 ;;                  1    wreg      void 
  5472 ;; Registers used:
  5473 ;;		wreg, status,2, status,0, pclath, cstack
  5474 ;; Tracked objects:
  5475 ;;		On entry : 0/0
  5476 ;;		On exit  : 0/0
  5477 ;;		Unchanged: 0/0
  5478 ;; Data sizes:     COMMON   BANK0   BANK1   BANK3   BANK2
  5479 ;;      Params:         0       0       0       0       0
  5480 ;;      Locals:         1       0       0       0       0
  5481 ;;      Temps:          0       2       0       0       0
  5482 ;;      Totals:         1       2       0       0       0
  5483 ;;Total ram usage:        3 bytes
  5484 ;; Hardware stack levels used:    1
  5485 ;; Hardware stack levels required when called:    2
  5486 ;; This function calls:
  5487 ;;		_lcd_databits
  5488 ;; This function is called by:
  5489 ;;		_lcd_wstring
  5490 ;; This function uses a non-reentrant model
  5491 ;;
  5492                           
  5493                           
  5494                           ;psect for function _lcd_writechar
  5495  1769                     _lcd_writechar:	
  5496                           
  5497                           ;incstack = 0
  5498                           ; Regs used in _lcd_writechar: [wreg+status,2+status,0+pclath+cstack]
  5499                           ;lcd_writechar@m stored from wreg
  5500  1769  00F6               	movwf	lcd_writechar@m
  5501  176A                     l3587:	
  5502                           
  5503                           ;LCDISPLIBLB3.c: 124:     RD1 = 1;
  5504  176A  1283               	bcf	3,5	;RP0=0, select bank0
  5505  176B  1303               	bcf	3,6	;RP1=0, select bank0
  5506  176C  1488               	bsf	8,1	;volatile
  5507  176D                     l3589:	
  5508                           
  5509                           ;LCDISPLIBLB3.c: 125:  lcd_databits(m);
  5510  176D  0876               	movf	lcd_writechar@m,w
  5511  176E  120A  158A  2056  160A  118A  	fcall	_lcd_databits
  5512  1773                     l3591:	
  5513                           
  5514                           ;LCDISPLIBLB3.c: 126:  RD0 = 1;
  5515  1773  1283               	bcf	3,5	;RP0=0, select bank0
  5516  1774  1303               	bcf	3,6	;RP1=0, select bank0
  5517  1775  1408               	bsf	8,0	;volatile
  5518  1776                     l3593:	
  5519                           
  5520                           ;LCDISPLIBLB3.c: 127:     _delay((unsigned long)((4)*(4000000/4000.0)));
  5521  1776  3006               	movlw	6
  5522  1777  1283               	bcf	3,5	;RP0=0, select bank0
  5523  1778  1303               	bcf	3,6	;RP1=0, select bank0
  5524  1779  00A1               	movwf	??_lcd_writechar+1
  5525  177A  302F               	movlw	47
  5526  177B  00A0               	movwf	??_lcd_writechar
  5527  177C                     u3547:	
  5528  177C  0BA0               	decfsz	??_lcd_writechar,f
  5529  177D  2F7C               	goto	u3547
  5530  177E  0BA1               	decfsz	??_lcd_writechar+1,f
  5531  177F  2F7C               	goto	u3547
  5532  1780  2F81               	nop2
  5533  1781                     l3595:	
  5534                           
  5535                           ;LCDISPLIBLB3.c: 128:     RD0 = 0;
  5536  1781  1283               	bcf	3,5	;RP0=0, select bank0
  5537  1782  1303               	bcf	3,6	;RP1=0, select bank0
  5538  1783  1008               	bcf	8,0	;volatile
  5539  1784                     l3597:	
  5540                           
  5541                           ;LCDISPLIBLB3.c: 129:     _delay((unsigned long)((1)*(4000000/4000.0)));
  5542  1784  30C7               	movlw	199
  5543  1785  1283               	bcf	3,5	;RP0=0, select bank0
  5544  1786  1303               	bcf	3,6	;RP1=0, select bank0
  5545  1787  00A0               	movwf	??_lcd_writechar
  5546  1788                     u3557:	
  5547  1788  2F89               	nop2
  5548  1789  0BA0               	decfsz	??_lcd_writechar,f
  5549  178A  2F88               	goto	u3557
  5550  178B  2F8C               	nop2
  5551  178C                     l59:	
  5552  178C  0008               	return
  5553  178D                     __end_of_lcd_writechar:	
  5554                           
  5555                           	psect	text14
  5556  17B1                     __ptext14:	
  5557 ;; *************** function _lcd_cursor_set *****************
  5558 ;; Defined at:
  5559 ;;		line 133 in file "LCDISPLIBLB3.c"
  5560 ;; Parameters:    Size  Location     Type
  5561 ;;  x               1    wreg     unsigned char 
  5562 ;;  y               1    2[BANK0 ] unsigned char 
  5563 ;; Auto vars:     Size  Location     Type
  5564 ;;  x               1    4[BANK0 ] unsigned char 
  5565 ;;  a               1    5[BANK0 ] unsigned char 
  5566 ;; Return value:  Size  Location     Type
  5567 ;;                  1    wreg      void 
  5568 ;; Registers used:
  5569 ;;		wreg, status,2, status,0, pclath, cstack
  5570 ;; Tracked objects:
  5571 ;;		On entry : 0/0
  5572 ;;		On exit  : 0/0
  5573 ;;		Unchanged: 0/0
  5574 ;; Data sizes:     COMMON   BANK0   BANK1   BANK3   BANK2
  5575 ;;      Params:         0       1       0       0       0
  5576 ;;      Locals:         0       2       0       0       0
  5577 ;;      Temps:          0       1       0       0       0
  5578 ;;      Totals:         0       4       0       0       0
  5579 ;;Total ram usage:        4 bytes
  5580 ;; Hardware stack levels used:    1
  5581 ;; Hardware stack levels required when called:    3
  5582 ;; This function calls:
  5583 ;;		_lcd_inst
  5584 ;; This function is called by:
  5585 ;;		_main
  5586 ;;		_cntdisp
  5587 ;;		_dispval1
  5588 ;;		_dispval2
  5589 ;; This function uses a non-reentrant model
  5590 ;;
  5591                           
  5592                           
  5593                           ;psect for function _lcd_cursor_set
  5594  17B1                     _lcd_cursor_set:	
  5595                           
  5596                           ;incstack = 0
  5597                           ; Regs used in _lcd_cursor_set: [wreg+status,2+status,0+pclath+cstack]
  5598                           ;lcd_cursor_set@x stored from wreg
  5599  17B1  1283               	bcf	3,5	;RP0=0, select bank0
  5600  17B2  1303               	bcf	3,6	;RP1=0, select bank0
  5601  17B3  00A4               	movwf	lcd_cursor_set@x
  5602  17B4                     l3637:	
  5603                           
  5604                           ;LCDISPLIBLB3.c: 133: void lcd_cursor_set(char x, char y);LCDISPLIBLB3.c: 134: {;LCDISPL
      +                          IBLB3.c: 135:  char a;;LCDISPLIBLB3.c: 136:  if(x == 1){
  5605  17B4  0324               	decf	lcd_cursor_set@x,w
  5606  17B5  1D03               	btfss	3,2
  5607  17B6  2FB8               	goto	u2721
  5608  17B7  2FB9               	goto	u2720
  5609  17B8                     u2721:	
  5610  17B8  2FC5               	goto	l3643
  5611  17B9                     u2720:	
  5612  17B9                     l3639:	
  5613                           
  5614                           ;LCDISPLIBLB3.c: 137:         a = 127 + y;
  5615  17B9  0822               	movf	lcd_cursor_set@y,w
  5616  17BA  3E7F               	addlw	127
  5617  17BB  00A3               	movwf	??_lcd_cursor_set
  5618  17BC  0823               	movf	??_lcd_cursor_set,w
  5619  17BD  00A5               	movwf	lcd_cursor_set@a
  5620  17BE                     l3641:	
  5621                           
  5622                           ;LCDISPLIBLB3.c: 138:         lcd_inst(a);
  5623  17BE  0825               	movf	lcd_cursor_set@a,w
  5624  17BF  160A  118A  2745  160A  118A  	fcall	_lcd_inst
  5625                           
  5626                           ;LCDISPLIBLB3.c: 139:  }
  5627  17C4  2FD6               	goto	l65
  5628  17C5                     l3643:	
  5629  17C5  3002               	movlw	2
  5630  17C6  0624               	xorwf	lcd_cursor_set@x,w
  5631  17C7  1D03               	btfss	3,2
  5632  17C8  2FCA               	goto	u2731
  5633  17C9  2FCB               	goto	u2730
  5634  17CA                     u2731:	
  5635  17CA  2FD6               	goto	l65
  5636  17CB                     u2730:	
  5637  17CB                     l3645:	
  5638                           
  5639                           ;LCDISPLIBLB3.c: 141:         a = 191 + y;
  5640  17CB  0822               	movf	lcd_cursor_set@y,w
  5641  17CC  3EBF               	addlw	191
  5642  17CD  00A3               	movwf	??_lcd_cursor_set
  5643  17CE  0823               	movf	??_lcd_cursor_set,w
  5644  17CF  00A5               	movwf	lcd_cursor_set@a
  5645  17D0                     l3647:	
  5646                           
  5647                           ;LCDISPLIBLB3.c: 142:   lcd_inst(a);
  5648  17D0  0825               	movf	lcd_cursor_set@a,w
  5649  17D1  160A  118A  2745  160A  118A  	fcall	_lcd_inst
  5650  17D6                     l65:	
  5651  17D6  0008               	return
  5652  17D7                     __end_of_lcd_cursor_set:	
  5653                           
  5654                           	psect	text15
  5655  1745                     __ptext15:	
  5656 ;; *************** function _lcd_inst *****************
  5657 ;; Defined at:
  5658 ;;		line 100 in file "LCDISPLIBLB3.c"
  5659 ;; Parameters:    Size  Location     Type
  5660 ;;  iord            1    wreg     unsigned char 
  5661 ;; Auto vars:     Size  Location     Type
  5662 ;;  iord            1    6[COMMON] unsigned char 
  5663 ;; Return value:  Size  Location     Type
  5664 ;;                  1    wreg      void 
  5665 ;; Registers used:
  5666 ;;		wreg, status,2, status,0, pclath, cstack
  5667 ;; Tracked objects:
  5668 ;;		On entry : 0/0
  5669 ;;		On exit  : 0/0
  5670 ;;		Unchanged: 0/0
  5671 ;; Data sizes:     COMMON   BANK0   BANK1   BANK3   BANK2
  5672 ;;      Params:         0       0       0       0       0
  5673 ;;      Locals:         1       0       0       0       0
  5674 ;;      Temps:          0       2       0       0       0
  5675 ;;      Totals:         1       2       0       0       0
  5676 ;;Total ram usage:        3 bytes
  5677 ;; Hardware stack levels used:    1
  5678 ;; Hardware stack levels required when called:    2
  5679 ;; This function calls:
  5680 ;;		_lcd_databits
  5681 ;; This function is called by:
  5682 ;;		_lcd_start
  5683 ;;		_lcd_cursor_set
  5684 ;;		_lcd_clear
  5685 ;; This function uses a non-reentrant model
  5686 ;;
  5687                           
  5688                           
  5689                           ;psect for function _lcd_inst
  5690  1745                     _lcd_inst:	
  5691                           
  5692                           ;incstack = 0
  5693                           ; Regs used in _lcd_inst: [wreg+status,2+status,0+pclath+cstack]
  5694                           ;lcd_inst@iord stored from wreg
  5695  1745  00F6               	movwf	lcd_inst@iord
  5696  1746                     l3575:	
  5697                           
  5698                           ;LCDISPLIBLB3.c: 101:  RD1 = 0;
  5699  1746  1283               	bcf	3,5	;RP0=0, select bank0
  5700  1747  1303               	bcf	3,6	;RP1=0, select bank0
  5701  1748  1088               	bcf	8,1	;volatile
  5702  1749                     l3577:	
  5703                           
  5704                           ;LCDISPLIBLB3.c: 102:  lcd_databits(iord);
  5705  1749  0876               	movf	lcd_inst@iord,w
  5706  174A  120A  158A  2056  160A  118A  	fcall	_lcd_databits
  5707  174F                     l3579:	
  5708                           
  5709                           ;LCDISPLIBLB3.c: 103:  RD0 = 1;
  5710  174F  1283               	bcf	3,5	;RP0=0, select bank0
  5711  1750  1303               	bcf	3,6	;RP1=0, select bank0
  5712  1751  1408               	bsf	8,0	;volatile
  5713  1752                     l3581:	
  5714                           
  5715                           ;LCDISPLIBLB3.c: 104:     _delay((unsigned long)((4)*(4000000/4000.0)));
  5716  1752  3006               	movlw	6
  5717  1753  1283               	bcf	3,5	;RP0=0, select bank0
  5718  1754  1303               	bcf	3,6	;RP1=0, select bank0
  5719  1755  00A1               	movwf	??_lcd_inst+1
  5720  1756  302F               	movlw	47
  5721  1757  00A0               	movwf	??_lcd_inst
  5722  1758                     u3567:	
  5723  1758  0BA0               	decfsz	??_lcd_inst,f
  5724  1759  2F58               	goto	u3567
  5725  175A  0BA1               	decfsz	??_lcd_inst+1,f
  5726  175B  2F58               	goto	u3567
  5727  175C  2F5D               	nop2
  5728  175D                     l3583:	
  5729                           
  5730                           ;LCDISPLIBLB3.c: 105:     RD0 = 0;
  5731  175D  1283               	bcf	3,5	;RP0=0, select bank0
  5732  175E  1303               	bcf	3,6	;RP1=0, select bank0
  5733  175F  1008               	bcf	8,0	;volatile
  5734  1760                     l3585:	
  5735                           
  5736                           ;LCDISPLIBLB3.c: 106:     _delay((unsigned long)((1)*(4000000/4000.0)));
  5737  1760  30C7               	movlw	199
  5738  1761  1283               	bcf	3,5	;RP0=0, select bank0
  5739  1762  1303               	bcf	3,6	;RP1=0, select bank0
  5740  1763  00A0               	movwf	??_lcd_inst
  5741  1764                     u3577:	
  5742  1764  2F65               	nop2
  5743  1765  0BA0               	decfsz	??_lcd_inst,f
  5744  1766  2F64               	goto	u3577
  5745  1767  2F68               	nop2
  5746  1768                     l53:	
  5747  1768  0008               	return
  5748  1769                     __end_of_lcd_inst:	
  5749                           
  5750                           	psect	text16
  5751  0856                     __ptext16:	
  5752 ;; *************** function _lcd_databits *****************
  5753 ;; Defined at:
  5754 ;;		line 20 in file "LCDISPLIBLB3.c"
  5755 ;; Parameters:    Size  Location     Type
  5756 ;;  data            1    wreg     unsigned char 
  5757 ;; Auto vars:     Size  Location     Type
  5758 ;;  data            1    5[COMMON] unsigned char 
  5759 ;; Return value:  Size  Location     Type
  5760 ;;                  1    wreg      void 
  5761 ;; Registers used:
  5762 ;;		wreg
  5763 ;; Tracked objects:
  5764 ;;		On entry : 0/0
  5765 ;;		On exit  : 0/0
  5766 ;;		Unchanged: 0/0
  5767 ;; Data sizes:     COMMON   BANK0   BANK1   BANK3   BANK2
  5768 ;;      Params:         0       0       0       0       0
  5769 ;;      Locals:         1       0       0       0       0
  5770 ;;      Temps:          0       0       0       0       0
  5771 ;;      Totals:         1       0       0       0       0
  5772 ;;Total ram usage:        1 bytes
  5773 ;; Hardware stack levels used:    1
  5774 ;; Hardware stack levels required when called:    1
  5775 ;; This function calls:
  5776 ;;		Nothing
  5777 ;; This function is called by:
  5778 ;;		_lcd_stinst5
  5779 ;;		_lcd_stinst1
  5780 ;;		_lcd_inst
  5781 ;;		_lcd_writechar
  5782 ;;		_lcd_char
  5783 ;; This function uses a non-reentrant model
  5784 ;;
  5785                           
  5786                           
  5787                           ;psect for function _lcd_databits
  5788  0856                     _lcd_databits:	
  5789                           
  5790                           ;incstack = 0
  5791                           ; Regs used in _lcd_databits: [wreg]
  5792                           ;lcd_databits@data stored from wreg
  5793  0856  00F5               	movwf	lcd_databits@data
  5794  0857                     l3557:	
  5795                           
  5796                           ;LCDISPLIBLB3.c: 20: void lcd_databits(char data);LCDISPLIBLB3.c: 21: {;LCDISPLIBLB3.c: 
      +                          22:     if(data & 1){
  5797  0857  1C75               	btfss	lcd_databits@data,0
  5798  0858  285A               	goto	u2611
  5799  0859  285B               	goto	u2610
  5800  085A                     u2611:	
  5801  085A  285F               	goto	l25
  5802  085B                     u2610:	
  5803  085B                     l3559:	
  5804                           
  5805                           ;LCDISPLIBLB3.c: 23:         RA0 = 1;
  5806  085B  1283               	bcf	3,5	;RP0=0, select bank0
  5807  085C  1303               	bcf	3,6	;RP1=0, select bank0
  5808  085D  1405               	bsf	5,0	;volatile
  5809                           
  5810                           ;LCDISPLIBLB3.c: 24:     }
  5811  085E  2862               	goto	l26
  5812  085F                     l25:	
  5813                           ;LCDISPLIBLB3.c: 25:  else{
  5814                           
  5815                           
  5816                           ;LCDISPLIBLB3.c: 26:   RA0 = 0;
  5817  085F  1283               	bcf	3,5	;RP0=0, select bank0
  5818  0860  1303               	bcf	3,6	;RP1=0, select bank0
  5819  0861  1005               	bcf	5,0	;volatile
  5820  0862                     l26:	
  5821                           ;LCDISPLIBLB3.c: 27:     }
  5822                           
  5823                           
  5824                           ;LCDISPLIBLB3.c: 28:  if(data & 2){
  5825  0862  1CF5               	btfss	lcd_databits@data,1
  5826  0863  2865               	goto	u2621
  5827  0864  2866               	goto	u2620
  5828  0865                     u2621:	
  5829  0865  2868               	goto	l27
  5830  0866                     u2620:	
  5831  0866                     l3561:	
  5832                           
  5833                           ;LCDISPLIBLB3.c: 29:         RA1 = 1;
  5834  0866  1485               	bsf	5,1	;volatile
  5835                           
  5836                           ;LCDISPLIBLB3.c: 30:     }
  5837  0867  2869               	goto	l28
  5838  0868                     l27:	
  5839                           ;LCDISPLIBLB3.c: 31:  else{
  5840                           
  5841                           
  5842                           ;LCDISPLIBLB3.c: 32:   RA1 = 0;
  5843  0868  1085               	bcf	5,1	;volatile
  5844  0869                     l28:	
  5845                           ;LCDISPLIBLB3.c: 33:     }
  5846                           
  5847                           
  5848                           ;LCDISPLIBLB3.c: 34:  if(data & 4){
  5849  0869  1D75               	btfss	lcd_databits@data,2
  5850  086A  286C               	goto	u2631
  5851  086B  286D               	goto	u2630
  5852  086C                     u2631:	
  5853  086C  286F               	goto	l29
  5854  086D                     u2630:	
  5855  086D                     l3563:	
  5856                           
  5857                           ;LCDISPLIBLB3.c: 35:   RA2 = 1;
  5858  086D  1505               	bsf	5,2	;volatile
  5859                           
  5860                           ;LCDISPLIBLB3.c: 36:     }
  5861  086E  2870               	goto	l30
  5862  086F                     l29:	
  5863                           ;LCDISPLIBLB3.c: 37:  else{
  5864                           
  5865                           
  5866                           ;LCDISPLIBLB3.c: 38:   RA2 = 0;
  5867  086F  1105               	bcf	5,2	;volatile
  5868  0870                     l30:	
  5869                           ;LCDISPLIBLB3.c: 39:     }
  5870                           
  5871                           
  5872                           ;LCDISPLIBLB3.c: 40:  if(data & 8){
  5873  0870  1DF5               	btfss	lcd_databits@data,3
  5874  0871  2873               	goto	u2641
  5875  0872  2874               	goto	u2640
  5876  0873                     u2641:	
  5877  0873  2876               	goto	l31
  5878  0874                     u2640:	
  5879  0874                     l3565:	
  5880                           
  5881                           ;LCDISPLIBLB3.c: 41:   RA3 = 1;
  5882  0874  1585               	bsf	5,3	;volatile
  5883                           
  5884                           ;LCDISPLIBLB3.c: 42:     }
  5885  0875  2877               	goto	l32
  5886  0876                     l31:	
  5887                           ;LCDISPLIBLB3.c: 43:  else{
  5888                           
  5889                           
  5890                           ;LCDISPLIBLB3.c: 44:   RA3 = 0;
  5891  0876  1185               	bcf	5,3	;volatile
  5892  0877                     l32:	
  5893                           ;LCDISPLIBLB3.c: 45:     }
  5894                           
  5895                           
  5896                           ;LCDISPLIBLB3.c: 46:  if(data & 16){
  5897  0877  1E75               	btfss	lcd_databits@data,4
  5898  0878  287A               	goto	u2651
  5899  0879  287B               	goto	u2650
  5900  087A                     u2651:	
  5901  087A  287D               	goto	l33
  5902  087B                     u2650:	
  5903  087B                     l3567:	
  5904                           
  5905                           ;LCDISPLIBLB3.c: 47:         RA4 = 1;
  5906  087B  1605               	bsf	5,4	;volatile
  5907                           
  5908                           ;LCDISPLIBLB3.c: 48:     }
  5909  087C  287E               	goto	l34
  5910  087D                     l33:	
  5911                           ;LCDISPLIBLB3.c: 49:  else{
  5912                           
  5913                           
  5914                           ;LCDISPLIBLB3.c: 50:   RA4 = 0;
  5915  087D  1205               	bcf	5,4	;volatile
  5916  087E                     l34:	
  5917                           ;LCDISPLIBLB3.c: 51:     }
  5918                           
  5919                           
  5920                           ;LCDISPLIBLB3.c: 52:  if(data & 32){
  5921  087E  1EF5               	btfss	lcd_databits@data,5
  5922  087F  2881               	goto	u2661
  5923  0880  2882               	goto	u2660
  5924  0881                     u2661:	
  5925  0881  2884               	goto	l35
  5926  0882                     u2660:	
  5927  0882                     l3569:	
  5928                           
  5929                           ;LCDISPLIBLB3.c: 53:         RA5 = 1;
  5930  0882  1685               	bsf	5,5	;volatile
  5931                           
  5932                           ;LCDISPLIBLB3.c: 54:     }
  5933  0883  2885               	goto	l36
  5934  0884                     l35:	
  5935                           ;LCDISPLIBLB3.c: 55:  else{
  5936                           
  5937                           
  5938                           ;LCDISPLIBLB3.c: 56:   RA5 = 0;
  5939  0884  1285               	bcf	5,5	;volatile
  5940  0885                     l36:	
  5941                           ;LCDISPLIBLB3.c: 57:     }
  5942                           
  5943                           
  5944                           ;LCDISPLIBLB3.c: 58:  if(data & 64){
  5945  0885  1F75               	btfss	lcd_databits@data,6
  5946  0886  2888               	goto	u2671
  5947  0887  2889               	goto	u2670
  5948  0888                     u2671:	
  5949  0888  288B               	goto	l37
  5950  0889                     u2670:	
  5951  0889                     l3571:	
  5952                           
  5953                           ;LCDISPLIBLB3.c: 59:   RA6 = 1;
  5954  0889  1705               	bsf	5,6	;volatile
  5955                           
  5956                           ;LCDISPLIBLB3.c: 60:     }
  5957  088A  288C               	goto	l38
  5958  088B                     l37:	
  5959                           ;LCDISPLIBLB3.c: 61:  else{
  5960                           
  5961                           
  5962                           ;LCDISPLIBLB3.c: 62:   RA6 = 0;
  5963  088B  1305               	bcf	5,6	;volatile
  5964  088C                     l38:	
  5965                           ;LCDISPLIBLB3.c: 63:     }
  5966                           
  5967                           
  5968                           ;LCDISPLIBLB3.c: 64:  if(data & 128){
  5969  088C  1FF5               	btfss	lcd_databits@data,7
  5970  088D  288F               	goto	u2681
  5971  088E  2890               	goto	u2680
  5972  088F                     u2681:	
  5973  088F  2892               	goto	l39
  5974  0890                     u2680:	
  5975  0890                     l3573:	
  5976                           
  5977                           ;LCDISPLIBLB3.c: 65:   RA7 = 1;
  5978  0890  1785               	bsf	5,7	;volatile
  5979                           
  5980                           ;LCDISPLIBLB3.c: 66:     }
  5981  0891  2893               	goto	l41
  5982  0892                     l39:	
  5983                           ;LCDISPLIBLB3.c: 67:  else{
  5984                           
  5985                           
  5986                           ;LCDISPLIBLB3.c: 68:   RA7 = 0;
  5987  0892  1385               	bcf	5,7	;volatile
  5988  0893                     l41:	
  5989  0893  0008               	return
  5990  0894                     __end_of_lcd_databits:	
  5991                           
  5992                           	psect	text17
  5993  08D4                     __ptext17:	
  5994 ;; *************** function ___awmod *****************
  5995 ;; Defined at:
  5996 ;;		line 5 in file "C:\Program Files (x86)\Microchip\xc8\v2.10\pic\sources\c90\common\awmod.c"
  5997 ;; Parameters:    Size  Location     Type
  5998 ;;  divisor         2    0[BANK0 ] int 
  5999 ;;  dividend        2    2[BANK0 ] int 
  6000 ;; Auto vars:     Size  Location     Type
  6001 ;;  sign            1    5[BANK0 ] unsigned char 
  6002 ;;  counter         1    4[BANK0 ] unsigned char 
  6003 ;; Return value:  Size  Location     Type
  6004 ;;                  2    0[BANK0 ] int 
  6005 ;; Registers used:
  6006 ;;		wreg, status,2, status,0
  6007 ;; Tracked objects:
  6008 ;;		On entry : 0/0
  6009 ;;		On exit  : 0/0
  6010 ;;		Unchanged: 0/0
  6011 ;; Data sizes:     COMMON   BANK0   BANK1   BANK3   BANK2
  6012 ;;      Params:         0       4       0       0       0
  6013 ;;      Locals:         0       2       0       0       0
  6014 ;;      Temps:          1       0       0       0       0
  6015 ;;      Totals:         1       6       0       0       0
  6016 ;;Total ram usage:        7 bytes
  6017 ;; Hardware stack levels used:    1
  6018 ;; Hardware stack levels required when called:    1
  6019 ;; This function calls:
  6020 ;;		Nothing
  6021 ;; This function is called by:
  6022 ;;		_cntdisp
  6023 ;;		_dispval1
  6024 ;;		_dispval2
  6025 ;; This function uses a non-reentrant model
  6026 ;;
  6027                           
  6028                           
  6029                           ;psect for function ___awmod
  6030  08D4                     ___awmod:	
  6031  08D4                     l3701:	
  6032                           ;incstack = 0
  6033                           ; Regs used in ___awmod: [wreg+status,2+status,0]
  6034                           
  6035  08D4  1283               	bcf	3,5	;RP0=0, select bank0
  6036  08D5  1303               	bcf	3,6	;RP1=0, select bank0
  6037  08D6  01A5               	clrf	___awmod@sign
  6038  08D7                     l3703:	
  6039  08D7  1FA3               	btfss	___awmod@dividend+1,7
  6040  08D8  28DA               	goto	u2851
  6041  08D9  28DB               	goto	u2850
  6042  08DA                     u2851:	
  6043  08DA  28E2               	goto	l3709
  6044  08DB                     u2850:	
  6045  08DB                     l3705:	
  6046  08DB  09A2               	comf	___awmod@dividend,f
  6047  08DC  09A3               	comf	___awmod@dividend+1,f
  6048  08DD  0AA2               	incf	___awmod@dividend,f
  6049  08DE  1903               	skipnz
  6050  08DF  0AA3               	incf	___awmod@dividend+1,f
  6051  08E0                     l3707:	
  6052  08E0  01A5               	clrf	___awmod@sign
  6053  08E1  0AA5               	incf	___awmod@sign,f
  6054  08E2                     l3709:	
  6055  08E2  1FA1               	btfss	___awmod@divisor+1,7
  6056  08E3  28E5               	goto	u2861
  6057  08E4  28E6               	goto	u2860
  6058  08E5                     u2861:	
  6059  08E5  28EB               	goto	l3713
  6060  08E6                     u2860:	
  6061  08E6                     l3711:	
  6062  08E6  09A0               	comf	___awmod@divisor,f
  6063  08E7  09A1               	comf	___awmod@divisor+1,f
  6064  08E8  0AA0               	incf	___awmod@divisor,f
  6065  08E9  1903               	skipnz
  6066  08EA  0AA1               	incf	___awmod@divisor+1,f
  6067  08EB                     l3713:	
  6068  08EB  0820               	movf	___awmod@divisor,w
  6069  08EC  0421               	iorwf	___awmod@divisor+1,w
  6070  08ED  1903               	btfsc	3,2
  6071  08EE  28F0               	goto	u2871
  6072  08EF  28F1               	goto	u2870
  6073  08F0                     u2871:	
  6074  08F0  2920               	goto	l3731
  6075  08F1                     u2870:	
  6076  08F1                     l3715:	
  6077  08F1  01A4               	clrf	___awmod@counter
  6078  08F2  0AA4               	incf	___awmod@counter,f
  6079  08F3  28FF               	goto	l3721
  6080  08F4                     l3717:	
  6081  08F4  3001               	movlw	1
  6082  08F5                     u2885:	
  6083  08F5  1003               	clrc
  6084  08F6  0DA0               	rlf	___awmod@divisor,f
  6085  08F7  0DA1               	rlf	___awmod@divisor+1,f
  6086  08F8  3EFF               	addlw	-1
  6087  08F9  1D03               	skipz
  6088  08FA  28F5               	goto	u2885
  6089  08FB                     l3719:	
  6090  08FB  3001               	movlw	1
  6091  08FC  00F5               	movwf	??___awmod
  6092  08FD  0875               	movf	??___awmod,w
  6093  08FE  07A4               	addwf	___awmod@counter,f
  6094  08FF                     l3721:	
  6095  08FF  1FA1               	btfss	___awmod@divisor+1,7
  6096  0900  2902               	goto	u2891
  6097  0901  2903               	goto	u2890
  6098  0902                     u2891:	
  6099  0902  28F4               	goto	l3717
  6100  0903                     u2890:	
  6101  0903                     l3723:	
  6102  0903  0821               	movf	___awmod@divisor+1,w
  6103  0904  0223               	subwf	___awmod@dividend+1,w
  6104  0905  1D03               	skipz
  6105  0906  2909               	goto	u2905
  6106  0907  0820               	movf	___awmod@divisor,w
  6107  0908  0222               	subwf	___awmod@dividend,w
  6108  0909                     u2905:	
  6109  0909  1C03               	skipc
  6110  090A  290C               	goto	u2901
  6111  090B  290D               	goto	u2900
  6112  090C                     u2901:	
  6113  090C  2913               	goto	l3727
  6114  090D                     u2900:	
  6115  090D                     l3725:	
  6116  090D  0820               	movf	___awmod@divisor,w
  6117  090E  02A2               	subwf	___awmod@dividend,f
  6118  090F  0821               	movf	___awmod@divisor+1,w
  6119  0910  1C03               	skipc
  6120  0911  03A3               	decf	___awmod@dividend+1,f
  6121  0912  02A3               	subwf	___awmod@dividend+1,f
  6122  0913                     l3727:	
  6123  0913  3001               	movlw	1
  6124  0914                     u2915:	
  6125  0914  1003               	clrc
  6126  0915  0CA1               	rrf	___awmod@divisor+1,f
  6127  0916  0CA0               	rrf	___awmod@divisor,f
  6128  0917  3EFF               	addlw	-1
  6129  0918  1D03               	skipz
  6130  0919  2914               	goto	u2915
  6131  091A                     l3729:	
  6132  091A  3001               	movlw	1
  6133  091B  02A4               	subwf	___awmod@counter,f
  6134  091C  1D03               	btfss	3,2
  6135  091D  291F               	goto	u2921
  6136  091E  2920               	goto	u2920
  6137  091F                     u2921:	
  6138  091F  2903               	goto	l3723
  6139  0920                     u2920:	
  6140  0920                     l3731:	
  6141  0920  0825               	movf	___awmod@sign,w
  6142  0921  1903               	btfsc	3,2
  6143  0922  2924               	goto	u2931
  6144  0923  2925               	goto	u2930
  6145  0924                     u2931:	
  6146  0924  292A               	goto	l3735
  6147  0925                     u2930:	
  6148  0925                     l3733:	
  6149  0925  09A2               	comf	___awmod@dividend,f
  6150  0926  09A3               	comf	___awmod@dividend+1,f
  6151  0927  0AA2               	incf	___awmod@dividend,f
  6152  0928  1903               	skipnz
  6153  0929  0AA3               	incf	___awmod@dividend+1,f
  6154  092A                     l3735:	
  6155  092A  0823               	movf	___awmod@dividend+1,w
  6156  092B  00A1               	movwf	?___awmod+1
  6157  092C  0822               	movf	___awmod@dividend,w
  6158  092D  00A0               	movwf	?___awmod
  6159  092E                     l605:	
  6160  092E  0008               	return
  6161  092F                     __end_of___awmod:	
  6162                           
  6163                           	psect	text18
  6164  092F                     __ptext18:	
  6165 ;; *************** function ___awdiv *****************
  6166 ;; Defined at:
  6167 ;;		line 5 in file "C:\Program Files (x86)\Microchip\xc8\v2.10\pic\sources\c90\common\awdiv.c"
  6168 ;; Parameters:    Size  Location     Type
  6169 ;;  divisor         2    0[BANK0 ] int 
  6170 ;;  dividend        2    2[BANK0 ] int 
  6171 ;; Auto vars:     Size  Location     Type
  6172 ;;  quotient        2    6[BANK0 ] int 
  6173 ;;  sign            1    5[BANK0 ] unsigned char 
  6174 ;;  counter         1    4[BANK0 ] unsigned char 
  6175 ;; Return value:  Size  Location     Type
  6176 ;;                  2    0[BANK0 ] int 
  6177 ;; Registers used:
  6178 ;;		wreg, status,2, status,0
  6179 ;; Tracked objects:
  6180 ;;		On entry : 0/0
  6181 ;;		On exit  : 0/0
  6182 ;;		Unchanged: 0/0
  6183 ;; Data sizes:     COMMON   BANK0   BANK1   BANK3   BANK2
  6184 ;;      Params:         0       4       0       0       0
  6185 ;;      Locals:         0       4       0       0       0
  6186 ;;      Temps:          1       0       0       0       0
  6187 ;;      Totals:         1       8       0       0       0
  6188 ;;Total ram usage:        9 bytes
  6189 ;; Hardware stack levels used:    1
  6190 ;; Hardware stack levels required when called:    1
  6191 ;; This function calls:
  6192 ;;		Nothing
  6193 ;; This function is called by:
  6194 ;;		_cntdisp
  6195 ;;		_dispval1
  6196 ;;		_dispval2
  6197 ;; This function uses a non-reentrant model
  6198 ;;
  6199                           
  6200                           
  6201                           ;psect for function ___awdiv
  6202  092F                     ___awdiv:	
  6203  092F                     l3657:	
  6204                           ;incstack = 0
  6205                           ; Regs used in ___awdiv: [wreg+status,2+status,0]
  6206                           
  6207  092F  1283               	bcf	3,5	;RP0=0, select bank0
  6208  0930  1303               	bcf	3,6	;RP1=0, select bank0
  6209  0931  01A5               	clrf	___awdiv@sign
  6210  0932                     l3659:	
  6211  0932  1FA1               	btfss	___awdiv@divisor+1,7
  6212  0933  2935               	goto	u2751
  6213  0934  2936               	goto	u2750
  6214  0935                     u2751:	
  6215  0935  293D               	goto	l3665
  6216  0936                     u2750:	
  6217  0936                     l3661:	
  6218  0936  09A0               	comf	___awdiv@divisor,f
  6219  0937  09A1               	comf	___awdiv@divisor+1,f
  6220  0938  0AA0               	incf	___awdiv@divisor,f
  6221  0939  1903               	skipnz
  6222  093A  0AA1               	incf	___awdiv@divisor+1,f
  6223  093B                     l3663:	
  6224  093B  01A5               	clrf	___awdiv@sign
  6225  093C  0AA5               	incf	___awdiv@sign,f
  6226  093D                     l3665:	
  6227  093D  1FA3               	btfss	___awdiv@dividend+1,7
  6228  093E  2940               	goto	u2761
  6229  093F  2941               	goto	u2760
  6230  0940                     u2761:	
  6231  0940  294A               	goto	l3671
  6232  0941                     u2760:	
  6233  0941                     l3667:	
  6234  0941  09A2               	comf	___awdiv@dividend,f
  6235  0942  09A3               	comf	___awdiv@dividend+1,f
  6236  0943  0AA2               	incf	___awdiv@dividend,f
  6237  0944  1903               	skipnz
  6238  0945  0AA3               	incf	___awdiv@dividend+1,f
  6239  0946                     l3669:	
  6240  0946  3001               	movlw	1
  6241  0947  00F5               	movwf	??___awdiv
  6242  0948  0875               	movf	??___awdiv,w
  6243  0949  06A5               	xorwf	___awdiv@sign,f
  6244  094A                     l3671:	
  6245  094A  01A6               	clrf	___awdiv@quotient
  6246  094B  01A7               	clrf	___awdiv@quotient+1
  6247  094C                     l3673:	
  6248  094C  0820               	movf	___awdiv@divisor,w
  6249  094D  0421               	iorwf	___awdiv@divisor+1,w
  6250  094E  1903               	btfsc	3,2
  6251  094F  2951               	goto	u2771
  6252  0950  2952               	goto	u2770
  6253  0951                     u2771:	
  6254  0951  2989               	goto	l3693
  6255  0952                     u2770:	
  6256  0952                     l3675:	
  6257  0952  01A4               	clrf	___awdiv@counter
  6258  0953  0AA4               	incf	___awdiv@counter,f
  6259  0954  2960               	goto	l3681
  6260  0955                     l3677:	
  6261  0955  3001               	movlw	1
  6262  0956                     u2785:	
  6263  0956  1003               	clrc
  6264  0957  0DA0               	rlf	___awdiv@divisor,f
  6265  0958  0DA1               	rlf	___awdiv@divisor+1,f
  6266  0959  3EFF               	addlw	-1
  6267  095A  1D03               	skipz
  6268  095B  2956               	goto	u2785
  6269  095C                     l3679:	
  6270  095C  3001               	movlw	1
  6271  095D  00F5               	movwf	??___awdiv
  6272  095E  0875               	movf	??___awdiv,w
  6273  095F  07A4               	addwf	___awdiv@counter,f
  6274  0960                     l3681:	
  6275  0960  1FA1               	btfss	___awdiv@divisor+1,7
  6276  0961  2963               	goto	u2791
  6277  0962  2964               	goto	u2790
  6278  0963                     u2791:	
  6279  0963  2955               	goto	l3677
  6280  0964                     u2790:	
  6281  0964                     l3683:	
  6282  0964  3001               	movlw	1
  6283  0965                     u2805:	
  6284  0965  1003               	clrc
  6285  0966  0DA6               	rlf	___awdiv@quotient,f
  6286  0967  0DA7               	rlf	___awdiv@quotient+1,f
  6287  0968  3EFF               	addlw	-1
  6288  0969  1D03               	skipz
  6289  096A  2965               	goto	u2805
  6290  096B  0821               	movf	___awdiv@divisor+1,w
  6291  096C  0223               	subwf	___awdiv@dividend+1,w
  6292  096D  1D03               	skipz
  6293  096E  2971               	goto	u2815
  6294  096F  0820               	movf	___awdiv@divisor,w
  6295  0970  0222               	subwf	___awdiv@dividend,w
  6296  0971                     u2815:	
  6297  0971  1C03               	skipc
  6298  0972  2974               	goto	u2811
  6299  0973  2975               	goto	u2810
  6300  0974                     u2811:	
  6301  0974  297C               	goto	l3689
  6302  0975                     u2810:	
  6303  0975                     l3685:	
  6304  0975  0820               	movf	___awdiv@divisor,w
  6305  0976  02A2               	subwf	___awdiv@dividend,f
  6306  0977  0821               	movf	___awdiv@divisor+1,w
  6307  0978  1C03               	skipc
  6308  0979  03A3               	decf	___awdiv@dividend+1,f
  6309  097A  02A3               	subwf	___awdiv@dividend+1,f
  6310  097B                     l3687:	
  6311  097B  1426               	bsf	___awdiv@quotient,0
  6312  097C                     l3689:	
  6313  097C  3001               	movlw	1
  6314  097D                     u2825:	
  6315  097D  1003               	clrc
  6316  097E  0CA1               	rrf	___awdiv@divisor+1,f
  6317  097F  0CA0               	rrf	___awdiv@divisor,f
  6318  0980  3EFF               	addlw	-1
  6319  0981  1D03               	skipz
  6320  0982  297D               	goto	u2825
  6321  0983                     l3691:	
  6322  0983  3001               	movlw	1
  6323  0984  02A4               	subwf	___awdiv@counter,f
  6324  0985  1D03               	btfss	3,2
  6325  0986  2988               	goto	u2831
  6326  0987  2989               	goto	u2830
  6327  0988                     u2831:	
  6328  0988  2964               	goto	l3683
  6329  0989                     u2830:	
  6330  0989                     l3693:	
  6331  0989  0825               	movf	___awdiv@sign,w
  6332  098A  1903               	btfsc	3,2
  6333  098B  298D               	goto	u2841
  6334  098C  298E               	goto	u2840
  6335  098D                     u2841:	
  6336  098D  2993               	goto	l3697
  6337  098E                     u2840:	
  6338  098E                     l3695:	
  6339  098E  09A6               	comf	___awdiv@quotient,f
  6340  098F  09A7               	comf	___awdiv@quotient+1,f
  6341  0990  0AA6               	incf	___awdiv@quotient,f
  6342  0991  1903               	skipnz
  6343  0992  0AA7               	incf	___awdiv@quotient+1,f
  6344  0993                     l3697:	
  6345  0993  0827               	movf	___awdiv@quotient+1,w
  6346  0994  00A1               	movwf	?___awdiv+1
  6347  0995  0826               	movf	___awdiv@quotient,w
  6348  0996  00A0               	movwf	?___awdiv
  6349  0997                     l592:	
  6350  0997  0008               	return
  6351  0998                     __end_of___awdiv:	
  6352                           
  6353                           	psect	text19
  6354  0A8C                     __ptext19:	
  6355 ;; *************** function ___xxtofl *****************
  6356 ;; Defined at:
  6357 ;;		line 10 in file "C:\Program Files (x86)\Microchip\xc8\v2.10\pic\sources\c90\common\xxtofl.c"
  6358 ;; Parameters:    Size  Location     Type
  6359 ;;  sign            1    wreg     unsigned char 
  6360 ;;  val             4    0[BANK0 ] long 
  6361 ;; Auto vars:     Size  Location     Type
  6362 ;;  sign            1    8[BANK0 ] unsigned char 
  6363 ;;  arg             4   10[BANK0 ] unsigned long 
  6364 ;;  exp             1    9[BANK0 ] unsigned char 
  6365 ;; Return value:  Size  Location     Type
  6366 ;;                  4    0[BANK0 ] unsigned char 
  6367 ;; Registers used:
  6368 ;;		wreg, status,2, status,0
  6369 ;; Tracked objects:
  6370 ;;		On entry : 0/0
  6371 ;;		On exit  : 0/0
  6372 ;;		Unchanged: 0/0
  6373 ;; Data sizes:     COMMON   BANK0   BANK1   BANK3   BANK2
  6374 ;;      Params:         0       4       0       0       0
  6375 ;;      Locals:         0       6       0       0       0
  6376 ;;      Temps:          0       4       0       0       0
  6377 ;;      Totals:         0      14       0       0       0
  6378 ;;Total ram usage:       14 bytes
  6379 ;; Hardware stack levels used:    1
  6380 ;; Hardware stack levels required when called:    1
  6381 ;; This function calls:
  6382 ;;		Nothing
  6383 ;; This function is called by:
  6384 ;;		_main
  6385 ;; This function uses a non-reentrant model
  6386 ;;
  6387                           
  6388                           
  6389                           ;psect for function ___xxtofl
  6390  0A8C                     ___xxtofl:	
  6391                           
  6392                           ;incstack = 0
  6393                           ; Regs used in ___xxtofl: [wreg+status,2+status,0]
  6394                           ;___xxtofl@sign stored from wreg
  6395  0A8C  1283               	bcf	3,5	;RP0=0, select bank0
  6396  0A8D  1303               	bcf	3,6	;RP1=0, select bank0
  6397  0A8E  00A8               	movwf	___xxtofl@sign
  6398  0A8F                     l4271:	
  6399  0A8F  0828               	movf	___xxtofl@sign,w
  6400  0A90  1903               	btfsc	3,2
  6401  0A91  2A93               	goto	u3321
  6402  0A92  2A94               	goto	u3320
  6403  0A93                     u3321:	
  6404  0A93  2AA8               	goto	l4277
  6405  0A94                     u3320:	
  6406  0A94                     l4273:	
  6407  0A94  1FA3               	btfss	___xxtofl@val+3,7
  6408  0A95  2A97               	goto	u3331
  6409  0A96  2A98               	goto	u3330
  6410  0A97                     u3331:	
  6411  0A97  2AA8               	goto	l4277
  6412  0A98                     u3330:	
  6413  0A98                     l4275:	
  6414  0A98  0920               	comf	___xxtofl@val,w
  6415  0A99  00AA               	movwf	___xxtofl@arg
  6416  0A9A  0921               	comf	___xxtofl@val+1,w
  6417  0A9B  00AB               	movwf	___xxtofl@arg+1
  6418  0A9C  0922               	comf	___xxtofl@val+2,w
  6419  0A9D  00AC               	movwf	___xxtofl@arg+2
  6420  0A9E  0923               	comf	___xxtofl@val+3,w
  6421  0A9F  00AD               	movwf	___xxtofl@arg+3
  6422  0AA0  0AAA               	incf	___xxtofl@arg,f
  6423  0AA1  1903               	skipnz
  6424  0AA2  0AAB               	incf	___xxtofl@arg+1,f
  6425  0AA3  1903               	skipnz
  6426  0AA4  0AAC               	incf	___xxtofl@arg+2,f
  6427  0AA5  1903               	skipnz
  6428  0AA6  0AAD               	incf	___xxtofl@arg+3,f
  6429  0AA7  2AB0               	goto	l866
  6430  0AA8                     l4277:	
  6431  0AA8  0823               	movf	___xxtofl@val+3,w
  6432  0AA9  00AD               	movwf	___xxtofl@arg+3
  6433  0AAA  0822               	movf	___xxtofl@val+2,w
  6434  0AAB  00AC               	movwf	___xxtofl@arg+2
  6435  0AAC  0821               	movf	___xxtofl@val+1,w
  6436  0AAD  00AB               	movwf	___xxtofl@arg+1
  6437  0AAE  0820               	movf	___xxtofl@val,w
  6438  0AAF  00AA               	movwf	___xxtofl@arg
  6439  0AB0                     l866:	
  6440  0AB0  0823               	movf	___xxtofl@val+3,w
  6441  0AB1  0422               	iorwf	___xxtofl@val+2,w
  6442  0AB2  0421               	iorwf	___xxtofl@val+1,w
  6443  0AB3  0420               	iorwf	___xxtofl@val,w
  6444  0AB4  1D03               	skipz
  6445  0AB5  2AB7               	goto	u3341
  6446  0AB6  2AB8               	goto	u3340
  6447  0AB7                     u3341:	
  6448  0AB7  2AC1               	goto	l4283
  6449  0AB8                     u3340:	
  6450  0AB8                     l4279:	
  6451  0AB8  3000               	movlw	0
  6452  0AB9  00A3               	movwf	?___xxtofl+3
  6453  0ABA  3000               	movlw	0
  6454  0ABB  00A2               	movwf	?___xxtofl+2
  6455  0ABC  3000               	movlw	0
  6456  0ABD  00A1               	movwf	?___xxtofl+1
  6457  0ABE  3000               	movlw	0
  6458  0ABF  00A0               	movwf	?___xxtofl
  6459  0AC0  2B47               	goto	l868
  6460  0AC1                     l4283:	
  6461  0AC1  3096               	movlw	150
  6462  0AC2  00A4               	movwf	??___xxtofl
  6463  0AC3  0824               	movf	??___xxtofl,w
  6464  0AC4  00A9               	movwf	___xxtofl@exp
  6465  0AC5  2AD3               	goto	l4287
  6466  0AC6                     l4285:	
  6467  0AC6  3001               	movlw	1
  6468  0AC7  00A4               	movwf	??___xxtofl
  6469  0AC8  0824               	movf	??___xxtofl,w
  6470  0AC9  07A9               	addwf	___xxtofl@exp,f
  6471  0ACA  3001               	movlw	1
  6472  0ACB                     u3355:	
  6473  0ACB  1003               	clrc
  6474  0ACC  0CAD               	rrf	___xxtofl@arg+3,f
  6475  0ACD  0CAC               	rrf	___xxtofl@arg+2,f
  6476  0ACE  0CAB               	rrf	___xxtofl@arg+1,f
  6477  0ACF  0CAA               	rrf	___xxtofl@arg,f
  6478  0AD0  3EFF               	addlw	-1
  6479  0AD1  1D03               	skipz
  6480  0AD2  2ACB               	goto	u3355
  6481  0AD3                     l4287:	
  6482  0AD3  30FE               	movlw	254
  6483  0AD4  052D               	andwf	___xxtofl@arg+3,w
  6484  0AD5  1D03               	btfss	3,2
  6485  0AD6  2AD8               	goto	u3361
  6486  0AD7  2AD9               	goto	u3360
  6487  0AD8                     u3361:	
  6488  0AD8  2AC6               	goto	l4285
  6489  0AD9                     u3360:	
  6490  0AD9  2AF5               	goto	l872
  6491  0ADA                     l4289:	
  6492  0ADA  3001               	movlw	1
  6493  0ADB  00A4               	movwf	??___xxtofl
  6494  0ADC  0824               	movf	??___xxtofl,w
  6495  0ADD  07A9               	addwf	___xxtofl@exp,f
  6496  0ADE                     l4291:	
  6497  0ADE  3001               	movlw	1
  6498  0ADF  07AA               	addwf	___xxtofl@arg,f
  6499  0AE0  3000               	movlw	0
  6500  0AE1  1803               	skipnc
  6501  0AE2  3001               	movlw	1
  6502  0AE3  07AB               	addwf	___xxtofl@arg+1,f
  6503  0AE4  3000               	movlw	0
  6504  0AE5  1803               	skipnc
  6505  0AE6  3001               	movlw	1
  6506  0AE7  07AC               	addwf	___xxtofl@arg+2,f
  6507  0AE8  3000               	movlw	0
  6508  0AE9  1803               	skipnc
  6509  0AEA  3001               	movlw	1
  6510  0AEB  07AD               	addwf	___xxtofl@arg+3,f
  6511  0AEC                     l4293:	
  6512  0AEC  3001               	movlw	1
  6513  0AED                     u3375:	
  6514  0AED  1003               	clrc
  6515  0AEE  0CAD               	rrf	___xxtofl@arg+3,f
  6516  0AEF  0CAC               	rrf	___xxtofl@arg+2,f
  6517  0AF0  0CAB               	rrf	___xxtofl@arg+1,f
  6518  0AF1  0CAA               	rrf	___xxtofl@arg,f
  6519  0AF2  3EFF               	addlw	-1
  6520  0AF3  1D03               	skipz
  6521  0AF4  2AED               	goto	u3375
  6522  0AF5                     l872:	
  6523  0AF5  30FF               	movlw	255
  6524  0AF6  052D               	andwf	___xxtofl@arg+3,w
  6525  0AF7  1D03               	btfss	3,2
  6526  0AF8  2AFA               	goto	u3381
  6527  0AF9  2AFB               	goto	u3380
  6528  0AFA                     u3381:	
  6529  0AFA  2ADA               	goto	l4289
  6530  0AFB                     u3380:	
  6531  0AFB  2B07               	goto	l4297
  6532  0AFC                     l4295:	
  6533  0AFC  3001               	movlw	1
  6534  0AFD  02A9               	subwf	___xxtofl@exp,f
  6535  0AFE  3001               	movlw	1
  6536  0AFF  00A4               	movwf	??___xxtofl
  6537  0B00                     u3395:	
  6538  0B00  1003               	clrc
  6539  0B01  0DAA               	rlf	___xxtofl@arg,f
  6540  0B02  0DAB               	rlf	___xxtofl@arg+1,f
  6541  0B03  0DAC               	rlf	___xxtofl@arg+2,f
  6542  0B04  0DAD               	rlf	___xxtofl@arg+3,f
  6543  0B05  0BA4               	decfsz	??___xxtofl,f
  6544  0B06  2B00               	goto	u3395
  6545  0B07                     l4297:	
  6546  0B07  1BAC               	btfsc	___xxtofl@arg+2,7
  6547  0B08  2B0A               	goto	u3401
  6548  0B09  2B0B               	goto	u3400
  6549  0B0A                     u3401:	
  6550  0B0A  2B11               	goto	l879
  6551  0B0B                     u3400:	
  6552  0B0B                     l4299:	
  6553  0B0B  3002               	movlw	2
  6554  0B0C  0229               	subwf	___xxtofl@exp,w
  6555  0B0D  1803               	skipnc
  6556  0B0E  2B10               	goto	u3411
  6557  0B0F  2B11               	goto	u3410
  6558  0B10                     u3411:	
  6559  0B10  2AFC               	goto	l4295
  6560  0B11                     u3410:	
  6561  0B11                     l879:	
  6562  0B11  1829               	btfsc	___xxtofl@exp,0
  6563  0B12  2B14               	goto	u3421
  6564  0B13  2B15               	goto	u3420
  6565  0B14                     u3421:	
  6566  0B14  2B1D               	goto	l880
  6567  0B15                     u3420:	
  6568  0B15                     l4301:	
  6569  0B15  30FF               	movlw	255
  6570  0B16  05AA               	andwf	___xxtofl@arg,f
  6571  0B17  30FF               	movlw	255
  6572  0B18  05AB               	andwf	___xxtofl@arg+1,f
  6573  0B19  307F               	movlw	127
  6574  0B1A  05AC               	andwf	___xxtofl@arg+2,f
  6575  0B1B  30FF               	movlw	255
  6576  0B1C  05AD               	andwf	___xxtofl@arg+3,f
  6577  0B1D                     l880:	
  6578  0B1D  1003               	clrc
  6579  0B1E  0CA9               	rrf	___xxtofl@exp,f
  6580  0B1F                     l4303:	
  6581  0B1F  0829               	movf	___xxtofl@exp,w
  6582  0B20  00A4               	movwf	??___xxtofl
  6583  0B21  01A5               	clrf	??___xxtofl+1
  6584  0B22  01A6               	clrf	??___xxtofl+2
  6585  0B23  01A7               	clrf	??___xxtofl+3
  6586  0B24  3018               	movlw	24
  6587  0B25                     u3435:	
  6588  0B25  1003               	clrc
  6589  0B26  0DA4               	rlf	??___xxtofl,f
  6590  0B27  0DA5               	rlf	??___xxtofl+1,f
  6591  0B28  0DA6               	rlf	??___xxtofl+2,f
  6592  0B29  0DA7               	rlf	??___xxtofl+3,f
  6593  0B2A                     u3430:	
  6594  0B2A  3EFF               	addlw	-1
  6595  0B2B  1D03               	skipz
  6596  0B2C  2B25               	goto	u3435
  6597  0B2D  0824               	movf	??___xxtofl,w
  6598  0B2E  04AA               	iorwf	___xxtofl@arg,f
  6599  0B2F  0825               	movf	??___xxtofl+1,w
  6600  0B30  04AB               	iorwf	___xxtofl@arg+1,f
  6601  0B31  0826               	movf	??___xxtofl+2,w
  6602  0B32  04AC               	iorwf	___xxtofl@arg+2,f
  6603  0B33  0827               	movf	??___xxtofl+3,w
  6604  0B34  04AD               	iorwf	___xxtofl@arg+3,f
  6605  0B35                     l4305:	
  6606  0B35  0828               	movf	___xxtofl@sign,w
  6607  0B36  1903               	btfsc	3,2
  6608  0B37  2B39               	goto	u3441
  6609  0B38  2B3A               	goto	u3440
  6610  0B39                     u3441:	
  6611  0B39  2B3F               	goto	l4311
  6612  0B3A                     u3440:	
  6613  0B3A                     l4307:	
  6614  0B3A  1FA3               	btfss	___xxtofl@val+3,7
  6615  0B3B  2B3D               	goto	u3451
  6616  0B3C  2B3E               	goto	u3450
  6617  0B3D                     u3451:	
  6618  0B3D  2B3F               	goto	l4311
  6619  0B3E                     u3450:	
  6620  0B3E                     l4309:	
  6621  0B3E  17AD               	bsf	___xxtofl@arg+3,7
  6622  0B3F                     l4311:	
  6623  0B3F  082D               	movf	___xxtofl@arg+3,w
  6624  0B40  00A3               	movwf	?___xxtofl+3
  6625  0B41  082C               	movf	___xxtofl@arg+2,w
  6626  0B42  00A2               	movwf	?___xxtofl+2
  6627  0B43  082B               	movf	___xxtofl@arg+1,w
  6628  0B44  00A1               	movwf	?___xxtofl+1
  6629  0B45  082A               	movf	___xxtofl@arg,w
  6630  0B46  00A0               	movwf	?___xxtofl
  6631  0B47                     l868:	
  6632  0B47  0008               	return
  6633  0B48                     __end_of___xxtofl:	
  6634                           
  6635                           	psect	text20
  6636  0E23                     __ptext20:	
  6637 ;; *************** function ___fldiv *****************
  6638 ;; Defined at:
  6639 ;;		line 8 in file "C:\Program Files (x86)\Microchip\xc8\v2.10\pic\sources\c90\common\sprcdiv.c"
  6640 ;; Parameters:    Size  Location     Type
  6641 ;;  a               4   14[BANK0 ] unsigned char 
  6642 ;;  b               4   18[BANK0 ] unsigned char 
  6643 ;; Auto vars:     Size  Location     Type
  6644 ;;  grs             4   34[BANK0 ] unsigned long 
  6645 ;;  rem             4   27[BANK0 ] unsigned long 
  6646 ;;  new_exp         2   32[BANK0 ] int 
  6647 ;;  aexp            1   39[BANK0 ] unsigned char 
  6648 ;;  bexp            1   38[BANK0 ] unsigned char 
  6649 ;;  sign            1   31[BANK0 ] unsigned char 
  6650 ;; Return value:  Size  Location     Type
  6651 ;;                  4   14[BANK0 ] unsigned char 
  6652 ;; Registers used:
  6653 ;;		wreg, status,2, status,0, btemp+1
  6654 ;; Tracked objects:
  6655 ;;		On entry : 0/0
  6656 ;;		On exit  : 0/0
  6657 ;;		Unchanged: 0/0
  6658 ;; Data sizes:     COMMON   BANK0   BANK1   BANK3   BANK2
  6659 ;;      Params:         0       8       0       0       0
  6660 ;;      Locals:         0      13       0       0       0
  6661 ;;      Temps:          0       5       0       0       0
  6662 ;;      Totals:         0      26       0       0       0
  6663 ;;Total ram usage:       26 bytes
  6664 ;; Hardware stack levels used:    1
  6665 ;; Hardware stack levels required when called:    1
  6666 ;; This function calls:
  6667 ;;		Nothing
  6668 ;; This function is called by:
  6669 ;;		_main
  6670 ;; This function uses a non-reentrant model
  6671 ;;
  6672                           
  6673                           
  6674                           ;psect for function ___fldiv
  6675  0E23                     ___fldiv:	
  6676  0E23                     l3041:	
  6677                           ;incstack = 0
  6678                           ; Regs used in ___fldiv: [wreg+status,2+status,0+btemp+1]
  6679                           
  6680  0E23  1283               	bcf	3,5	;RP0=0, select bank0
  6681  0E24  1303               	bcf	3,6	;RP1=0, select bank0
  6682  0E25  0835               	movf	___fldiv@b+3,w
  6683  0E26  3980               	andlw	128
  6684  0E27  00B6               	movwf	??___fldiv
  6685  0E28  0836               	movf	??___fldiv,w
  6686  0E29  00BF               	movwf	___fldiv@sign
  6687  0E2A                     l3043:	
  6688  0E2A  0835               	movf	___fldiv@b+3,w
  6689  0E2B  00B6               	movwf	??___fldiv
  6690  0E2C  0736               	addwf	??___fldiv,w
  6691  0E2D  00B7               	movwf	??___fldiv+1
  6692  0E2E  0837               	movf	??___fldiv+1,w
  6693  0E2F  00C6               	movwf	___fldiv@bexp
  6694  0E30                     l3045:	
  6695  0E30  1FB4               	btfss	___fldiv@b+2,7
  6696  0E31  2E33               	goto	u2131
  6697  0E32  2E34               	goto	u2130
  6698  0E33                     u2131:	
  6699  0E33  2E35               	goto	l3049
  6700  0E34                     u2130:	
  6701  0E34                     l3047:	
  6702  0E34  1446               	bsf	___fldiv@bexp,0
  6703  0E35                     l3049:	
  6704  0E35  0846               	movf	___fldiv@bexp,w
  6705  0E36  1903               	btfsc	3,2
  6706  0E37  2E39               	goto	u2141
  6707  0E38  2E3A               	goto	u2140
  6708  0E39                     u2141:	
  6709  0E39  2E4A               	goto	l3059
  6710  0E3A                     u2140:	
  6711  0E3A                     l3051:	
  6712  0E3A  0A46               	incf	___fldiv@bexp,w
  6713  0E3B  1D03               	btfss	3,2
  6714  0E3C  2E3E               	goto	u2151
  6715  0E3D  2E3F               	goto	u2150
  6716  0E3E                     u2151:	
  6717  0E3E  2E47               	goto	l3055
  6718  0E3F                     u2150:	
  6719  0E3F                     l3053:	
  6720  0E3F  3000               	movlw	0
  6721  0E40  00B5               	movwf	___fldiv@b+3
  6722  0E41  3000               	movlw	0
  6723  0E42  00B4               	movwf	___fldiv@b+2
  6724  0E43  3000               	movlw	0
  6725  0E44  00B3               	movwf	___fldiv@b+1
  6726  0E45  3000               	movlw	0
  6727  0E46  00B2               	movwf	___fldiv@b
  6728  0E47                     l3055:	
  6729  0E47  17B4               	bsf	___fldiv@b+2,7
  6730  0E48                     l3057:	
  6731  0E48  01B5               	clrf	___fldiv@b+3
  6732  0E49  2E52               	goto	l3061
  6733  0E4A                     l3059:	
  6734  0E4A  3000               	movlw	0
  6735  0E4B  00B5               	movwf	___fldiv@b+3
  6736  0E4C  3000               	movlw	0
  6737  0E4D  00B4               	movwf	___fldiv@b+2
  6738  0E4E  3000               	movlw	0
  6739  0E4F  00B3               	movwf	___fldiv@b+1
  6740  0E50  3000               	movlw	0
  6741  0E51  00B2               	movwf	___fldiv@b
  6742  0E52                     l3061:	
  6743  0E52  0831               	movf	___fldiv@a+3,w
  6744  0E53  3980               	andlw	128
  6745  0E54  00B6               	movwf	??___fldiv
  6746  0E55  0836               	movf	??___fldiv,w
  6747  0E56  06BF               	xorwf	___fldiv@sign,f
  6748  0E57                     l3063:	
  6749  0E57  0831               	movf	___fldiv@a+3,w
  6750  0E58  00B6               	movwf	??___fldiv
  6751  0E59  0736               	addwf	??___fldiv,w
  6752  0E5A  00B7               	movwf	??___fldiv+1
  6753  0E5B  0837               	movf	??___fldiv+1,w
  6754  0E5C  00C7               	movwf	___fldiv@aexp
  6755  0E5D                     l3065:	
  6756  0E5D  1FB0               	btfss	___fldiv@a+2,7
  6757  0E5E  2E60               	goto	u2161
  6758  0E5F  2E61               	goto	u2160
  6759  0E60                     u2161:	
  6760  0E60  2E62               	goto	l3069
  6761  0E61                     u2160:	
  6762  0E61                     l3067:	
  6763  0E61  1447               	bsf	___fldiv@aexp,0
  6764  0E62                     l3069:	
  6765  0E62  0847               	movf	___fldiv@aexp,w
  6766  0E63  1903               	btfsc	3,2
  6767  0E64  2E66               	goto	u2171
  6768  0E65  2E67               	goto	u2170
  6769  0E66                     u2171:	
  6770  0E66  2E77               	goto	l3079
  6771  0E67                     u2170:	
  6772  0E67                     l3071:	
  6773  0E67  0A47               	incf	___fldiv@aexp,w
  6774  0E68  1D03               	btfss	3,2
  6775  0E69  2E6B               	goto	u2181
  6776  0E6A  2E6C               	goto	u2180
  6777  0E6B                     u2181:	
  6778  0E6B  2E74               	goto	l3075
  6779  0E6C                     u2180:	
  6780  0E6C                     l3073:	
  6781  0E6C  3000               	movlw	0
  6782  0E6D  00B1               	movwf	___fldiv@a+3
  6783  0E6E  3000               	movlw	0
  6784  0E6F  00B0               	movwf	___fldiv@a+2
  6785  0E70  3000               	movlw	0
  6786  0E71  00AF               	movwf	___fldiv@a+1
  6787  0E72  3000               	movlw	0
  6788  0E73  00AE               	movwf	___fldiv@a
  6789  0E74                     l3075:	
  6790  0E74  17B0               	bsf	___fldiv@a+2,7
  6791  0E75                     l3077:	
  6792  0E75  01B1               	clrf	___fldiv@a+3
  6793  0E76  2E7F               	goto	l788
  6794  0E77                     l3079:	
  6795  0E77  3000               	movlw	0
  6796  0E78  00B1               	movwf	___fldiv@a+3
  6797  0E79  3000               	movlw	0
  6798  0E7A  00B0               	movwf	___fldiv@a+2
  6799  0E7B  3000               	movlw	0
  6800  0E7C  00AF               	movwf	___fldiv@a+1
  6801  0E7D  3000               	movlw	0
  6802  0E7E  00AE               	movwf	___fldiv@a
  6803  0E7F                     l788:	
  6804  0E7F  0831               	movf	___fldiv@a+3,w
  6805  0E80  0430               	iorwf	___fldiv@a+2,w
  6806  0E81  042F               	iorwf	___fldiv@a+1,w
  6807  0E82  042E               	iorwf	___fldiv@a,w
  6808  0E83  1D03               	skipz
  6809  0E84  2E86               	goto	u2191
  6810  0E85  2E87               	goto	u2190
  6811  0E86                     u2191:	
  6812  0E86  2EA0               	goto	l3089
  6813  0E87                     u2190:	
  6814  0E87                     l3081:	
  6815  0E87  3000               	movlw	0
  6816  0E88  00B5               	movwf	___fldiv@b+3
  6817  0E89  3000               	movlw	0
  6818  0E8A  00B4               	movwf	___fldiv@b+2
  6819  0E8B  3000               	movlw	0
  6820  0E8C  00B3               	movwf	___fldiv@b+1
  6821  0E8D  3000               	movlw	0
  6822  0E8E  00B2               	movwf	___fldiv@b
  6823  0E8F  3080               	movlw	128
  6824  0E90  04B4               	iorwf	___fldiv@b+2,f
  6825  0E91  307F               	movlw	127
  6826  0E92  04B5               	iorwf	___fldiv@b+3,f
  6827  0E93                     l3083:	
  6828  0E93  083F               	movf	___fldiv@sign,w
  6829  0E94  00B6               	movwf	??___fldiv
  6830  0E95  0836               	movf	??___fldiv,w
  6831  0E96  04B5               	iorwf	___fldiv@b+3,f
  6832  0E97                     l3085:	
  6833  0E97  0835               	movf	___fldiv@b+3,w
  6834  0E98  00B1               	movwf	?___fldiv+3
  6835  0E99  0834               	movf	___fldiv@b+2,w
  6836  0E9A  00B0               	movwf	?___fldiv+2
  6837  0E9B  0833               	movf	___fldiv@b+1,w
  6838  0E9C  00AF               	movwf	?___fldiv+1
  6839  0E9D  0832               	movf	___fldiv@b,w
  6840  0E9E  00AE               	movwf	?___fldiv
  6841  0E9F  2FFF               	goto	l790
  6842  0EA0                     l3089:	
  6843  0EA0  0846               	movf	___fldiv@bexp,w
  6844  0EA1  1D03               	btfss	3,2
  6845  0EA2  2EA4               	goto	u2201
  6846  0EA3  2EA5               	goto	u2200
  6847  0EA4                     u2201:	
  6848  0EA4  2EAE               	goto	l3095
  6849  0EA5                     u2200:	
  6850  0EA5                     l3091:	
  6851  0EA5  3000               	movlw	0
  6852  0EA6  00B1               	movwf	?___fldiv+3
  6853  0EA7  3000               	movlw	0
  6854  0EA8  00B0               	movwf	?___fldiv+2
  6855  0EA9  3000               	movlw	0
  6856  0EAA  00AF               	movwf	?___fldiv+1
  6857  0EAB  3000               	movlw	0
  6858  0EAC  00AE               	movwf	?___fldiv
  6859  0EAD  2FFF               	goto	l790
  6860  0EAE                     l3095:	
  6861  0EAE  0846               	movf	___fldiv@bexp,w
  6862  0EAF  00B6               	movwf	??___fldiv
  6863  0EB0  01B7               	clrf	??___fldiv+1
  6864  0EB1  0837               	movf	??___fldiv+1,w
  6865  0EB2  00B9               	movwf	??___fldiv+3
  6866  0EB3  0847               	movf	___fldiv@aexp,w
  6867  0EB4  0236               	subwf	??___fldiv,w
  6868  0EB5  00B8               	movwf	??___fldiv+2
  6869  0EB6  1C03               	skipc
  6870  0EB7  03B9               	decf	??___fldiv+3,f
  6871  0EB8  0838               	movf	??___fldiv+2,w
  6872  0EB9  3E7F               	addlw	127
  6873  0EBA  00C0               	movwf	___fldiv@new_exp
  6874  0EBB  0839               	movf	??___fldiv+3,w
  6875  0EBC  1803               	skipnc
  6876  0EBD  3E01               	addlw	1
  6877  0EBE  3E00               	addlw	0
  6878  0EBF  00C1               	movwf	___fldiv@new_exp+1
  6879  0EC0                     l3097:	
  6880  0EC0  0835               	movf	___fldiv@b+3,w
  6881  0EC1  00BE               	movwf	___fldiv@rem+3
  6882  0EC2  0834               	movf	___fldiv@b+2,w
  6883  0EC3  00BD               	movwf	___fldiv@rem+2
  6884  0EC4  0833               	movf	___fldiv@b+1,w
  6885  0EC5  00BC               	movwf	___fldiv@rem+1
  6886  0EC6  0832               	movf	___fldiv@b,w
  6887  0EC7  00BB               	movwf	___fldiv@rem
  6888  0EC8                     l3099:	
  6889  0EC8  3000               	movlw	0
  6890  0EC9  00B5               	movwf	___fldiv@b+3
  6891  0ECA  3000               	movlw	0
  6892  0ECB  00B4               	movwf	___fldiv@b+2
  6893  0ECC  3000               	movlw	0
  6894  0ECD  00B3               	movwf	___fldiv@b+1
  6895  0ECE  3000               	movlw	0
  6896  0ECF  00B2               	movwf	___fldiv@b
  6897  0ED0                     l3101:	
  6898  0ED0  3000               	movlw	0
  6899  0ED1  00C5               	movwf	___fldiv@grs+3
  6900  0ED2  3000               	movlw	0
  6901  0ED3  00C4               	movwf	___fldiv@grs+2
  6902  0ED4  3000               	movlw	0
  6903  0ED5  00C3               	movwf	___fldiv@grs+1
  6904  0ED6  3000               	movlw	0
  6905  0ED7  00C2               	movwf	___fldiv@grs
  6906  0ED8                     l3103:	
  6907  0ED8  01C7               	clrf	___fldiv@aexp
  6908  0ED9  2F24               	goto	l3123
  6909  0EDA                     l3105:	
  6910  0EDA  0847               	movf	___fldiv@aexp,w
  6911  0EDB  1903               	btfsc	3,2
  6912  0EDC  2EDE               	goto	u2211
  6913  0EDD  2EDF               	goto	u2210
  6914  0EDE                     u2211:	
  6915  0EDE  2EFF               	goto	l3115
  6916  0EDF                     u2210:	
  6917  0EDF                     l3107:	
  6918  0EDF  3001               	movlw	1
  6919  0EE0  00B6               	movwf	??___fldiv
  6920  0EE1                     u2225:	
  6921  0EE1  1003               	clrc
  6922  0EE2  0DBB               	rlf	___fldiv@rem,f
  6923  0EE3  0DBC               	rlf	___fldiv@rem+1,f
  6924  0EE4  0DBD               	rlf	___fldiv@rem+2,f
  6925  0EE5  0DBE               	rlf	___fldiv@rem+3,f
  6926  0EE6  0BB6               	decfsz	??___fldiv,f
  6927  0EE7  2EE1               	goto	u2225
  6928  0EE8  3001               	movlw	1
  6929  0EE9  00B6               	movwf	??___fldiv
  6930  0EEA                     u2235:	
  6931  0EEA  1003               	clrc
  6932  0EEB  0DB2               	rlf	___fldiv@b,f
  6933  0EEC  0DB3               	rlf	___fldiv@b+1,f
  6934  0EED  0DB4               	rlf	___fldiv@b+2,f
  6935  0EEE  0DB5               	rlf	___fldiv@b+3,f
  6936  0EEF  0BB6               	decfsz	??___fldiv,f
  6937  0EF0  2EEA               	goto	u2235
  6938  0EF1                     l3109:	
  6939  0EF1  1FC5               	btfss	___fldiv@grs+3,7
  6940  0EF2  2EF4               	goto	u2241
  6941  0EF3  2EF5               	goto	u2240
  6942  0EF4                     u2241:	
  6943  0EF4  2EF6               	goto	l3113
  6944  0EF5                     u2240:	
  6945  0EF5                     l3111:	
  6946  0EF5  1432               	bsf	___fldiv@b,0
  6947  0EF6                     l3113:	
  6948  0EF6  3001               	movlw	1
  6949  0EF7  00B6               	movwf	??___fldiv
  6950  0EF8                     u2255:	
  6951  0EF8  1003               	clrc
  6952  0EF9  0DC2               	rlf	___fldiv@grs,f
  6953  0EFA  0DC3               	rlf	___fldiv@grs+1,f
  6954  0EFB  0DC4               	rlf	___fldiv@grs+2,f
  6955  0EFC  0DC5               	rlf	___fldiv@grs+3,f
  6956  0EFD  0BB6               	decfsz	??___fldiv,f
  6957  0EFE  2EF8               	goto	u2255
  6958  0EFF                     l3115:	
  6959  0EFF  0831               	movf	___fldiv@a+3,w
  6960  0F00  023E               	subwf	___fldiv@rem+3,w
  6961  0F01  1D03               	skipz
  6962  0F02  2F0D               	goto	u2265
  6963  0F03  0830               	movf	___fldiv@a+2,w
  6964  0F04  023D               	subwf	___fldiv@rem+2,w
  6965  0F05  1D03               	skipz
  6966  0F06  2F0D               	goto	u2265
  6967  0F07  082F               	movf	___fldiv@a+1,w
  6968  0F08  023C               	subwf	___fldiv@rem+1,w
  6969  0F09  1D03               	skipz
  6970  0F0A  2F0D               	goto	u2265
  6971  0F0B  082E               	movf	___fldiv@a,w
  6972  0F0C  023B               	subwf	___fldiv@rem,w
  6973  0F0D                     u2265:	
  6974  0F0D  1C03               	skipc
  6975  0F0E  2F10               	goto	u2261
  6976  0F0F  2F11               	goto	u2260
  6977  0F10                     u2261:	
  6978  0F10  2F20               	goto	l3121
  6979  0F11                     u2260:	
  6980  0F11                     l3117:	
  6981  0F11  1745               	bsf	___fldiv@grs+3,6
  6982  0F12                     l3119:	
  6983  0F12  082E               	movf	___fldiv@a,w
  6984  0F13  02BB               	subwf	___fldiv@rem,f
  6985  0F14  082F               	movf	___fldiv@a+1,w
  6986  0F15  1C03               	skipc
  6987  0F16  0F2F               	incfsz	___fldiv@a+1,w
  6988  0F17  02BC               	subwf	___fldiv@rem+1,f
  6989  0F18  0830               	movf	___fldiv@a+2,w
  6990  0F19  1C03               	skipc
  6991  0F1A  0F30               	incfsz	___fldiv@a+2,w
  6992  0F1B  02BD               	subwf	___fldiv@rem+2,f
  6993  0F1C  0831               	movf	___fldiv@a+3,w
  6994  0F1D  1C03               	skipc
  6995  0F1E  0F31               	incfsz	___fldiv@a+3,w
  6996  0F1F  02BE               	subwf	___fldiv@rem+3,f
  6997  0F20                     l3121:	
  6998  0F20  3001               	movlw	1
  6999  0F21  00B6               	movwf	??___fldiv
  7000  0F22  0836               	movf	??___fldiv,w
  7001  0F23  07C7               	addwf	___fldiv@aexp,f
  7002  0F24                     l3123:	
  7003  0F24  301A               	movlw	26
  7004  0F25  0247               	subwf	___fldiv@aexp,w
  7005  0F26  1C03               	skipc
  7006  0F27  2F29               	goto	u2271
  7007  0F28  2F2A               	goto	u2270
  7008  0F29                     u2271:	
  7009  0F29  2EDA               	goto	l3105
  7010  0F2A                     u2270:	
  7011  0F2A                     l3125:	
  7012  0F2A  083E               	movf	___fldiv@rem+3,w
  7013  0F2B  043D               	iorwf	___fldiv@rem+2,w
  7014  0F2C  043C               	iorwf	___fldiv@rem+1,w
  7015  0F2D  043B               	iorwf	___fldiv@rem,w
  7016  0F2E  1903               	skipnz
  7017  0F2F  2F31               	goto	u2281
  7018  0F30  2F32               	goto	u2280
  7019  0F31                     u2281:	
  7020  0F31  2F51               	goto	l3139
  7021  0F32                     u2280:	
  7022  0F32                     l3127:	
  7023  0F32  1442               	bsf	___fldiv@grs,0
  7024  0F33  2F51               	goto	l3139
  7025  0F34                     l3129:	
  7026  0F34  3001               	movlw	1
  7027  0F35  00B6               	movwf	??___fldiv
  7028  0F36                     u2295:	
  7029  0F36  1003               	clrc
  7030  0F37  0DB2               	rlf	___fldiv@b,f
  7031  0F38  0DB3               	rlf	___fldiv@b+1,f
  7032  0F39  0DB4               	rlf	___fldiv@b+2,f
  7033  0F3A  0DB5               	rlf	___fldiv@b+3,f
  7034  0F3B  0BB6               	decfsz	??___fldiv,f
  7035  0F3C  2F36               	goto	u2295
  7036  0F3D                     l3131:	
  7037  0F3D  1FC5               	btfss	___fldiv@grs+3,7
  7038  0F3E  2F40               	goto	u2301
  7039  0F3F  2F41               	goto	u2300
  7040  0F40                     u2301:	
  7041  0F40  2F42               	goto	l3135
  7042  0F41                     u2300:	
  7043  0F41                     l3133:	
  7044  0F41  1432               	bsf	___fldiv@b,0
  7045  0F42                     l3135:	
  7046  0F42  3001               	movlw	1
  7047  0F43  00B6               	movwf	??___fldiv
  7048  0F44                     u2315:	
  7049  0F44  1003               	clrc
  7050  0F45  0DC2               	rlf	___fldiv@grs,f
  7051  0F46  0DC3               	rlf	___fldiv@grs+1,f
  7052  0F47  0DC4               	rlf	___fldiv@grs+2,f
  7053  0F48  0DC5               	rlf	___fldiv@grs+3,f
  7054  0F49  0BB6               	decfsz	??___fldiv,f
  7055  0F4A  2F44               	goto	u2315
  7056  0F4B                     l3137:	
  7057  0F4B  30FF               	movlw	255
  7058  0F4C  07C0               	addwf	___fldiv@new_exp,f
  7059  0F4D  1803               	skipnc
  7060  0F4E  0AC1               	incf	___fldiv@new_exp+1,f
  7061  0F4F  30FF               	movlw	255
  7062  0F50  07C1               	addwf	___fldiv@new_exp+1,f
  7063  0F51                     l3139:	
  7064  0F51  1FB4               	btfss	___fldiv@b+2,7
  7065  0F52  2F54               	goto	u2321
  7066  0F53  2F55               	goto	u2320
  7067  0F54                     u2321:	
  7068  0F54  2F34               	goto	l3129
  7069  0F55                     u2320:	
  7070  0F55                     l3141:	
  7071  0F55  01C7               	clrf	___fldiv@aexp
  7072  0F56                     l3143:	
  7073  0F56  1FC5               	btfss	___fldiv@grs+3,7
  7074  0F57  2F59               	goto	u2331
  7075  0F58  2F5A               	goto	u2330
  7076  0F59                     u2331:	
  7077  0F59  2F76               	goto	l3151
  7078  0F5A                     u2330:	
  7079  0F5A                     l3145:	
  7080  0F5A  30FF               	movlw	255
  7081  0F5B  0542               	andwf	___fldiv@grs,w
  7082  0F5C  00B6               	movwf	??___fldiv
  7083  0F5D  30FF               	movlw	255
  7084  0F5E  0543               	andwf	___fldiv@grs+1,w
  7085  0F5F  00B7               	movwf	??___fldiv+1
  7086  0F60  30FF               	movlw	255
  7087  0F61  0544               	andwf	___fldiv@grs+2,w
  7088  0F62  00B8               	movwf	??___fldiv+2
  7089  0F63  307F               	movlw	127
  7090  0F64  0545               	andwf	___fldiv@grs+3,w
  7091  0F65  00B9               	movwf	??___fldiv+3
  7092  0F66  0839               	movf	??___fldiv+3,w
  7093  0F67  0438               	iorwf	??___fldiv+2,w
  7094  0F68  0437               	iorwf	??___fldiv+1,w
  7095  0F69  0436               	iorwf	??___fldiv,w
  7096  0F6A  1903               	skipnz
  7097  0F6B  2F6D               	goto	u2341
  7098  0F6C  2F6E               	goto	u2340
  7099  0F6D                     u2341:	
  7100  0F6D  2F71               	goto	l804
  7101  0F6E                     u2340:	
  7102  0F6E                     l3147:	
  7103  0F6E  01C7               	clrf	___fldiv@aexp
  7104  0F6F  0AC7               	incf	___fldiv@aexp,f
  7105  0F70  2F76               	goto	l3151
  7106  0F71                     l804:	
  7107  0F71  1C32               	btfss	___fldiv@b,0
  7108  0F72  2F74               	goto	u2351
  7109  0F73  2F75               	goto	u2350
  7110  0F74                     u2351:	
  7111  0F74  2F76               	goto	l3151
  7112  0F75                     u2350:	
  7113  0F75  2F6E               	goto	l3147
  7114  0F76                     l3151:	
  7115  0F76  0847               	movf	___fldiv@aexp,w
  7116  0F77  1903               	btfsc	3,2
  7117  0F78  2F7A               	goto	u2361
  7118  0F79  2F7B               	goto	u2360
  7119  0F7A                     u2361:	
  7120  0F7A  2FAC               	goto	l3161
  7121  0F7B                     u2360:	
  7122  0F7B                     l3153:	
  7123  0F7B  3001               	movlw	1
  7124  0F7C  07B2               	addwf	___fldiv@b,f
  7125  0F7D  3000               	movlw	0
  7126  0F7E  1803               	skipnc
  7127  0F7F  3001               	movlw	1
  7128  0F80  07B3               	addwf	___fldiv@b+1,f
  7129  0F81  3000               	movlw	0
  7130  0F82  1803               	skipnc
  7131  0F83  3001               	movlw	1
  7132  0F84  07B4               	addwf	___fldiv@b+2,f
  7133  0F85  3000               	movlw	0
  7134  0F86  1803               	skipnc
  7135  0F87  3001               	movlw	1
  7136  0F88  07B5               	addwf	___fldiv@b+3,f
  7137  0F89                     l3155:	
  7138  0F89  1C35               	btfss	___fldiv@b+3,0
  7139  0F8A  2F8C               	goto	u2371
  7140  0F8B  2F8D               	goto	u2370
  7141  0F8C                     u2371:	
  7142  0F8C  2FAC               	goto	l3161
  7143  0F8D                     u2370:	
  7144  0F8D                     l3157:	
  7145  0F8D  0832               	movf	___fldiv@b,w
  7146  0F8E  00B6               	movwf	??___fldiv
  7147  0F8F  0833               	movf	___fldiv@b+1,w
  7148  0F90  00B7               	movwf	??___fldiv+1
  7149  0F91  0834               	movf	___fldiv@b+2,w
  7150  0F92  00B8               	movwf	??___fldiv+2
  7151  0F93  0835               	movf	___fldiv@b+3,w
  7152  0F94  00B9               	movwf	??___fldiv+3
  7153  0F95  3001               	movlw	1
  7154  0F96  00BA               	movwf	??___fldiv+4
  7155  0F97                     u2385:	
  7156  0F97  0D39               	rlf	??___fldiv+3,w
  7157  0F98  0CB9               	rrf	??___fldiv+3,f
  7158  0F99  0CB8               	rrf	??___fldiv+2,f
  7159  0F9A  0CB7               	rrf	??___fldiv+1,f
  7160  0F9B  0CB6               	rrf	??___fldiv,f
  7161  0F9C                     u2380:	
  7162  0F9C  0BBA               	decfsz	??___fldiv+4,f
  7163  0F9D  2F97               	goto	u2385
  7164  0F9E  0839               	movf	??___fldiv+3,w
  7165  0F9F  00B5               	movwf	___fldiv@b+3
  7166  0FA0  0838               	movf	??___fldiv+2,w
  7167  0FA1  00B4               	movwf	___fldiv@b+2
  7168  0FA2  0837               	movf	??___fldiv+1,w
  7169  0FA3  00B3               	movwf	___fldiv@b+1
  7170  0FA4  0836               	movf	??___fldiv,w
  7171  0FA5  00B2               	movwf	___fldiv@b
  7172  0FA6                     l3159:	
  7173  0FA6  3001               	movlw	1
  7174  0FA7  07C0               	addwf	___fldiv@new_exp,f
  7175  0FA8  1803               	skipnc
  7176  0FA9  0AC1               	incf	___fldiv@new_exp+1,f
  7177  0FAA  3000               	movlw	0
  7178  0FAB  07C1               	addwf	___fldiv@new_exp+1,f
  7179  0FAC                     l3161:	
  7180  0FAC  0841               	movf	___fldiv@new_exp+1,w
  7181  0FAD  3A80               	xorlw	128
  7182  0FAE  00FF               	movwf	btemp+1
  7183  0FAF  3080               	movlw	128
  7184  0FB0  027F               	subwf	btemp+1,w
  7185  0FB1  1D03               	skipz
  7186  0FB2  2FB5               	goto	u2395
  7187  0FB3  30FF               	movlw	255
  7188  0FB4  0240               	subwf	___fldiv@new_exp,w
  7189  0FB5                     u2395:	
  7190  0FB5  1C03               	skipc
  7191  0FB6  2FB8               	goto	u2391
  7192  0FB7  2FB9               	goto	u2390
  7193  0FB8                     u2391:	
  7194  0FB8  2FC7               	goto	l3165
  7195  0FB9                     u2390:	
  7196  0FB9                     l3163:	
  7197  0FB9  30FF               	movlw	255
  7198  0FBA  1283               	bcf	3,5	;RP0=0, select bank0
  7199  0FBB  1303               	bcf	3,6	;RP1=0, select bank0
  7200  0FBC  00C0               	movwf	___fldiv@new_exp
  7201  0FBD  3000               	movlw	0
  7202  0FBE  00C1               	movwf	___fldiv@new_exp+1
  7203  0FBF  3000               	movlw	0
  7204  0FC0  00B5               	movwf	___fldiv@b+3
  7205  0FC1  3000               	movlw	0
  7206  0FC2  00B4               	movwf	___fldiv@b+2
  7207  0FC3  3000               	movlw	0
  7208  0FC4  00B3               	movwf	___fldiv@b+1
  7209  0FC5  3000               	movlw	0
  7210  0FC6  00B2               	movwf	___fldiv@b
  7211  0FC7                     l3165:	
  7212  0FC7  1283               	bcf	3,5	;RP0=0, select bank0
  7213  0FC8  1303               	bcf	3,6	;RP1=0, select bank0
  7214  0FC9  0841               	movf	___fldiv@new_exp+1,w
  7215  0FCA  3A80               	xorlw	128
  7216  0FCB  00FF               	movwf	btemp+1
  7217  0FCC  3080               	movlw	128
  7218  0FCD  027F               	subwf	btemp+1,w
  7219  0FCE  1D03               	skipz
  7220  0FCF  2FD2               	goto	u2405
  7221  0FD0  3001               	movlw	1
  7222  0FD1  0240               	subwf	___fldiv@new_exp,w
  7223  0FD2                     u2405:	
  7224  0FD2  1803               	skipnc
  7225  0FD3  2FD5               	goto	u2401
  7226  0FD4  2FD6               	goto	u2400
  7227  0FD5                     u2401:	
  7228  0FD5  2FE3               	goto	l810
  7229  0FD6                     u2400:	
  7230  0FD6                     l3167:	
  7231  0FD6  1283               	bcf	3,5	;RP0=0, select bank0
  7232  0FD7  1303               	bcf	3,6	;RP1=0, select bank0
  7233  0FD8  01C0               	clrf	___fldiv@new_exp
  7234  0FD9  01C1               	clrf	___fldiv@new_exp+1
  7235  0FDA                     l3169:	
  7236  0FDA  3000               	movlw	0
  7237  0FDB  00B5               	movwf	___fldiv@b+3
  7238  0FDC  3000               	movlw	0
  7239  0FDD  00B4               	movwf	___fldiv@b+2
  7240  0FDE  3000               	movlw	0
  7241  0FDF  00B3               	movwf	___fldiv@b+1
  7242  0FE0  3000               	movlw	0
  7243  0FE1  00B2               	movwf	___fldiv@b
  7244  0FE2                     l3171:	
  7245  0FE2  01BF               	clrf	___fldiv@sign
  7246  0FE3                     l810:	
  7247  0FE3  1283               	bcf	3,5	;RP0=0, select bank0
  7248  0FE4  1303               	bcf	3,6	;RP1=0, select bank0
  7249  0FE5  0840               	movf	___fldiv@new_exp,w
  7250  0FE6  00B6               	movwf	??___fldiv
  7251  0FE7  0836               	movf	??___fldiv,w
  7252  0FE8  00C6               	movwf	___fldiv@bexp
  7253  0FE9                     l3173:	
  7254  0FE9  1C46               	btfss	___fldiv@bexp,0
  7255  0FEA  2FEC               	goto	u2411
  7256  0FEB  2FED               	goto	u2410
  7257  0FEC                     u2411:	
  7258  0FEC  2FEF               	goto	l3177
  7259  0FED                     u2410:	
  7260  0FED                     l3175:	
  7261  0FED  17B4               	bsf	___fldiv@b+2,7
  7262  0FEE  2FF3               	goto	l812
  7263  0FEF                     l3177:	
  7264  0FEF  307F               	movlw	127
  7265  0FF0  00B6               	movwf	??___fldiv
  7266  0FF1  0836               	movf	??___fldiv,w
  7267  0FF2  05B4               	andwf	___fldiv@b+2,f
  7268  0FF3                     l812:	
  7269  0FF3  0846               	movf	___fldiv@bexp,w
  7270  0FF4  00B6               	movwf	??___fldiv
  7271  0FF5  1003               	clrc
  7272  0FF6  0C36               	rrf	??___fldiv,w
  7273  0FF7  00B7               	movwf	??___fldiv+1
  7274  0FF8  0837               	movf	??___fldiv+1,w
  7275  0FF9  00B5               	movwf	___fldiv@b+3
  7276  0FFA  083F               	movf	___fldiv@sign,w
  7277  0FFB  00B6               	movwf	??___fldiv
  7278  0FFC  0836               	movf	??___fldiv,w
  7279  0FFD  04B5               	iorwf	___fldiv@b+3,f
  7280  0FFE  2E97               	goto	l3085
  7281  0FFF                     l790:	
  7282  0FFF  0008               	return
  7283  1000                     __end_of___fldiv:	
  7284                           
  7285                           	psect	text21
  7286  16F7                     __ptext21:	
  7287 ;; *************** function _UART_Write *****************
  7288 ;; Defined at:
  7289 ;;		line 42 in file "usartlib.c"
  7290 ;; Parameters:    Size  Location     Type
  7291 ;;  data            1    wreg     unsigned char 
  7292 ;; Auto vars:     Size  Location     Type
  7293 ;;  data            1    5[COMMON] unsigned char 
  7294 ;; Return value:  Size  Location     Type
  7295 ;;                  1    wreg      void 
  7296 ;; Registers used:
  7297 ;;		wreg
  7298 ;; Tracked objects:
  7299 ;;		On entry : 0/0
  7300 ;;		On exit  : 0/0
  7301 ;;		Unchanged: 0/0
  7302 ;; Data sizes:     COMMON   BANK0   BANK1   BANK3   BANK2
  7303 ;;      Params:         0       0       0       0       0
  7304 ;;      Locals:         1       0       0       0       0
  7305 ;;      Temps:          0       0       0       0       0
  7306 ;;      Totals:         1       0       0       0       0
  7307 ;;Total ram usage:        1 bytes
  7308 ;; Hardware stack levels used:    1
  7309 ;; Hardware stack levels required when called:    1
  7310 ;; This function calls:
  7311 ;;		Nothing
  7312 ;; This function is called by:
  7313 ;;		_main
  7314 ;; This function uses a non-reentrant model
  7315 ;;
  7316                           
  7317                           
  7318                           ;psect for function _UART_Write
  7319  16F7                     _UART_Write:	
  7320                           
  7321                           ;incstack = 0
  7322                           ; Regs used in _UART_Write: [wreg]
  7323                           ;UART_Write@data stored from wreg
  7324  16F7  00F5               	movwf	UART_Write@data
  7325  16F8                     l2701:	
  7326  16F8                     l341:	
  7327                           ;usartlib.c: 42: void UART_Write(char data);usartlib.c: 43: {;usartlib.c: 44:   while(!T
      +                          RMT);
  7328                           
  7329  16F8  1683               	bsf	3,5	;RP0=1, select bank1
  7330  16F9  1303               	bcf	3,6	;RP1=0, select bank1
  7331  16FA  1C98               	btfss	24,1	;volatile
  7332  16FB  2EFD               	goto	u2111
  7333  16FC  2EFE               	goto	u2110
  7334  16FD                     u2111:	
  7335  16FD  2EF8               	goto	l341
  7336  16FE                     u2110:	
  7337  16FE                     l2703:	
  7338                           
  7339                           ;usartlib.c: 45:   TXREG = data;
  7340  16FE  0875               	movf	UART_Write@data,w
  7341  16FF  1283               	bcf	3,5	;RP0=0, select bank0
  7342  1700  1303               	bcf	3,6	;RP1=0, select bank0
  7343  1701  0099               	movwf	25	;volatile
  7344  1702                     l344:	
  7345  1702  0008               	return
  7346  1703                     __end_of_UART_Write:	
  7347                           
  7348                           	psect	text22
  7349  080A                     __ptext22:	
  7350 ;; *************** function _UART_Read *****************
  7351 ;; Defined at:
  7352 ;;		line 47 in file "usartlib.c"
  7353 ;; Parameters:    Size  Location     Type
  7354 ;;		None
  7355 ;; Auto vars:     Size  Location     Type
  7356 ;;  intro           2    0[BANK0 ] int 
  7357 ;; Return value:  Size  Location     Type
  7358 ;;                  1    wreg      unsigned char 
  7359 ;; Registers used:
  7360 ;;		wreg
  7361 ;; Tracked objects:
  7362 ;;		On entry : 0/0
  7363 ;;		On exit  : 0/0
  7364 ;;		Unchanged: 0/0
  7365 ;; Data sizes:     COMMON   BANK0   BANK1   BANK3   BANK2
  7366 ;;      Params:         0       0       0       0       0
  7367 ;;      Locals:         0       2       0       0       0
  7368 ;;      Temps:          2       0       0       0       0
  7369 ;;      Totals:         2       2       0       0       0
  7370 ;;Total ram usage:        4 bytes
  7371 ;; Hardware stack levels used:    1
  7372 ;; Hardware stack levels required when called:    1
  7373 ;; This function calls:
  7374 ;;		Nothing
  7375 ;; This function is called by:
  7376 ;;		_main
  7377 ;; This function uses a non-reentrant model
  7378 ;;
  7379                           
  7380                           
  7381                           ;psect for function _UART_Read
  7382  080A                     _UART_Read:	
  7383  080A                     l4179:	
  7384                           ;incstack = 0
  7385                           ; Regs used in _UART_Read: [wreg]
  7386                           
  7387                           
  7388                           ;usartlib.c: 48: int intro;;usartlib.c: 49:   while(!RCIF){
  7389  080A  280C               	goto	l347
  7390  080B                     l348:	
  7391  080B  0000               	nop	;# 
  7392  080C                     l347:	
  7393                           ;usartlib.c: 51:   }
  7394                           
  7395                           
  7396                           ;usartlib.c: 49:   while(!RCIF){
  7397  080C  1283               	bcf	3,5	;RP0=0, select bank0
  7398  080D  1303               	bcf	3,6	;RP1=0, select bank0
  7399  080E  1E8C               	btfss	12,5	;volatile
  7400  080F  2811               	goto	u3311
  7401  0810  2812               	goto	u3310
  7402  0811                     u3311:	
  7403  0811  280B               	goto	l348
  7404  0812                     u3310:	
  7405  0812                     l4181:	
  7406                           
  7407                           ;usartlib.c: 52:   intro = RCREG;
  7408  0812  081A               	movf	26,w	;volatile
  7409  0813  00F5               	movwf	??_UART_Read
  7410  0814  01F6               	clrf	??_UART_Read+1
  7411  0815  0875               	movf	??_UART_Read,w
  7412  0816  00A0               	movwf	UART_Read@intro
  7413  0817  0876               	movf	??_UART_Read+1,w
  7414  0818  00A1               	movwf	UART_Read@intro+1
  7415                           
  7416                           ;usartlib.c: 53:   return intro;
  7417  0819  0820               	movf	UART_Read@intro,w
  7418  081A                     l350:	
  7419  081A  0008               	return
  7420  081B                     __end_of_UART_Read:	
  7421                           
  7422                           	psect	text23
  7423  07F6                     __ptext23:	
  7424 ;; *************** function _UART_Data_Ready *****************
  7425 ;; Defined at:
  7426 ;;		line 56 in file "usartlib.c"
  7427 ;; Parameters:    Size  Location     Type
  7428 ;;		None
  7429 ;; Auto vars:     Size  Location     Type
  7430 ;;		None
  7431 ;; Return value:  Size  Location     Type
  7432 ;;                  1    wreg      unsigned char 
  7433 ;; Registers used:
  7434 ;;		wreg
  7435 ;; Tracked objects:
  7436 ;;		On entry : 0/0
  7437 ;;		On exit  : 0/0
  7438 ;;		Unchanged: 0/0
  7439 ;; Data sizes:     COMMON   BANK0   BANK1   BANK3   BANK2
  7440 ;;      Params:         0       0       0       0       0
  7441 ;;      Locals:         0       0       0       0       0
  7442 ;;      Temps:          0       0       0       0       0
  7443 ;;      Totals:         0       0       0       0       0
  7444 ;;Total ram usage:        0 bytes
  7445 ;; Hardware stack levels used:    1
  7446 ;; Hardware stack levels required when called:    1
  7447 ;; This function calls:
  7448 ;;		Nothing
  7449 ;; This function is called by:
  7450 ;;		_main
  7451 ;; This function uses a non-reentrant model
  7452 ;;
  7453                           
  7454                           
  7455                           ;psect for function _UART_Data_Ready
  7456  07F6                     _UART_Data_Ready:	
  7457  07F6                     l2945:	
  7458                           ;incstack = 0
  7459                           ; Regs used in _UART_Data_Ready: [wreg]
  7460                           
  7461                           
  7462                           ;usartlib.c: 58:   return RCIF;
  7463  07F6  3000               	movlw	0
  7464  07F7  1283               	bcf	3,5	;RP0=0, select bank0
  7465  07F8  1303               	bcf	3,6	;RP1=0, select bank0
  7466  07F9  1A8C               	btfsc	12,5	;volatile
  7467  07FA  3001               	movlw	1
  7468  07FB                     l353:	
  7469  07FB  0008               	return
  7470  07FC                     __end_of_UART_Data_Ready:	
  7471                           
  7472                           	psect	text24
  7473  0894                     __ptext24:	
  7474 ;; *************** function _ISR *****************
  7475 ;; Defined at:
  7476 ;;		line 83 in file "LabLCDisp.c"
  7477 ;; Parameters:    Size  Location     Type
  7478 ;;		None
  7479 ;; Auto vars:     Size  Location     Type
  7480 ;;		None
  7481 ;; Return value:  Size  Location     Type
  7482 ;;                  1    wreg      void 
  7483 ;; Registers used:
  7484 ;;		wreg, fsr0l, fsr0h, status,2, status,0
  7485 ;; Tracked objects:
  7486 ;;		On entry : 0/0
  7487 ;;		On exit  : 0/0
  7488 ;;		Unchanged: 0/0
  7489 ;; Data sizes:     COMMON   BANK0   BANK1   BANK3   BANK2
  7490 ;;      Params:         0       0       0       0       0
  7491 ;;      Locals:         0       0       0       0       0
  7492 ;;      Temps:          5       0       0       0       0
  7493 ;;      Totals:         5       0       0       0       0
  7494 ;;Total ram usage:        5 bytes
  7495 ;; Hardware stack levels used:    1
  7496 ;; This function calls:
  7497 ;;		Nothing
  7498 ;; This function is called by:
  7499 ;;		Interrupt level 1
  7500 ;; This function uses a non-reentrant model
  7501 ;;
  7502                           
  7503                           
  7504                           ;psect for function _ISR
  7505  0894                     _ISR:	
  7506  0894                     i1l3241:	
  7507                           
  7508                           ;LabLCDisp.c: 84:     if (PIR1bits.ADIF == 1){
  7509  0894  1283               	bcf	3,5	;RP0=0, select bank0
  7510  0895  1303               	bcf	3,6	;RP1=0, select bank0
  7511  0896  1F0C               	btfss	12,6	;volatile
  7512  0897  2899               	goto	u256_21
  7513  0898  289A               	goto	u256_20
  7514  0899                     u256_21:	
  7515  0899  28C3               	goto	i1l168
  7516  089A                     u256_20:	
  7517  089A                     i1l3243:	
  7518                           
  7519                           ;LabLCDisp.c: 85:         PIR1bits.ADIF = 0;
  7520  089A  130C               	bcf	12,6	;volatile
  7521                           
  7522                           ;LabLCDisp.c: 86:         switch (ADCchannel){
  7523  089B  28B1               	goto	i1l3259
  7524  089C                     i1l3245:	
  7525                           
  7526                           ;LabLCDisp.c: 88:                 ADCval1 = ADRESH;
  7527  089C  081E               	movf	30,w	;volatile
  7528  089D  00F0               	movwf	??_ISR
  7529  089E  0870               	movf	??_ISR,w
  7530  089F  00E7               	movwf	_ADCval1
  7531  08A0                     i1l3247:	
  7532                           
  7533                           ;LabLCDisp.c: 89:                 ADCON0bits.CHS = 0b1100;
  7534  08A0  081F               	movf	31,w	;volatile
  7535  08A1  39C3               	andlw	-61
  7536  08A2  3830               	iorlw	48
  7537  08A3  009F               	movwf	31	;volatile
  7538  08A4                     i1l3249:	
  7539                           
  7540                           ;LabLCDisp.c: 90:                 ADCchannel = 1;
  7541  08A4  01F8               	clrf	_ADCchannel
  7542  08A5  0AF8               	incf	_ADCchannel,f
  7543                           
  7544                           ;LabLCDisp.c: 91:                 break;
  7545  08A6  28C1               	goto	i1l171
  7546  08A7                     i1l3251:	
  7547                           
  7548                           ;LabLCDisp.c: 93:                 ADCval2 = ADRESH;
  7549  08A7  081E               	movf	30,w	;volatile
  7550  08A8  00F0               	movwf	??_ISR
  7551  08A9  0870               	movf	??_ISR,w
  7552  08AA  00E6               	movwf	_ADCval2
  7553  08AB                     i1l3253:	
  7554                           
  7555                           ;LabLCDisp.c: 94:                 ADCON0bits.CHS = 0b1101;
  7556  08AB  081F               	movf	31,w	;volatile
  7557  08AC  39C3               	andlw	-61
  7558  08AD  3834               	iorlw	52
  7559  08AE  009F               	movwf	31	;volatile
  7560  08AF                     i1l3255:	
  7561                           
  7562                           ;LabLCDisp.c: 95:                 ADCchannel = 0;
  7563  08AF  01F8               	clrf	_ADCchannel
  7564                           
  7565                           ;LabLCDisp.c: 96:                 break;
  7566  08B0  28C1               	goto	i1l171
  7567  08B1                     i1l3259:	
  7568  08B1  0878               	movf	_ADCchannel,w
  7569  08B2  00F0               	movwf	??_ISR
  7570  08B3  01F1               	clrf	??_ISR+1
  7571                           
  7572                           ; Switch on 2 bytes has been partitioned into a top level switch of size 1, and 1 sub-sw
      +                          itches
  7573                           ; Switch size 1, requested type "simple"
  7574                           ; Number of cases is 1, Range of values is 0 to 0
  7575                           ; switch strategies available:
  7576                           ; Name         Instructions Cycles
  7577                           ; simple_byte            4     3 (average)
  7578                           ; direct_byte           11     8 (fixed)
  7579                           ; jumptable            260     6 (fixed)
  7580                           ;	Chosen strategy is simple_byte
  7581  08B4  0871               	movf	??_ISR+1,w
  7582  08B5  3A00               	xorlw	0	; case 0
  7583  08B6  1903               	skipnz
  7584  08B7  28B9               	goto	i1l4639
  7585  08B8  28C1               	goto	i1l171
  7586  08B9                     i1l4639:	
  7587                           
  7588                           ; Switch size 1, requested type "simple"
  7589                           ; Number of cases is 2, Range of values is 0 to 1
  7590                           ; switch strategies available:
  7591                           ; Name         Instructions Cycles
  7592                           ; simple_byte            7     4 (average)
  7593                           ; direct_byte           14     8 (fixed)
  7594                           ; jumptable            260     6 (fixed)
  7595                           ;	Chosen strategy is simple_byte
  7596  08B9  0870               	movf	??_ISR,w
  7597  08BA  3A00               	xorlw	0	; case 0
  7598  08BB  1903               	skipnz
  7599  08BC  289C               	goto	i1l3245
  7600  08BD  3A01               	xorlw	1	; case 1
  7601  08BE  1903               	skipnz
  7602  08BF  28A7               	goto	i1l3251
  7603  08C0  28C1               	goto	i1l171
  7604  08C1                     i1l171:	
  7605                           
  7606                           ;LabLCDisp.c: 98:         ADCON0bits.GO = 1;
  7607  08C1  149F               	bsf	31,1	;volatile
  7608                           
  7609                           ;LabLCDisp.c: 99:     }
  7610  08C2  28CB               	goto	i1l176
  7611  08C3                     i1l168:	
  7612                           ;LabLCDisp.c: 100:     else if (PIR1bits.TXIF == 1) {
  7613                           
  7614  08C3  1E0C               	btfss	12,4	;volatile
  7615  08C4  28C6               	goto	u257_21
  7616  08C5  28C7               	goto	u257_20
  7617  08C6                     u257_21:	
  7618  08C6  28CA               	goto	i1l174
  7619  08C7                     u257_20:	
  7620  08C7                     i1l3261:	
  7621                           
  7622                           ;LabLCDisp.c: 101:         send = 1;
  7623  08C7  01F7               	clrf	_send
  7624  08C8  0AF7               	incf	_send,f
  7625                           
  7626                           ;LabLCDisp.c: 102:     }
  7627  08C9  28CB               	goto	i1l176
  7628  08CA                     i1l174:	
  7629                           ;LabLCDisp.c: 103:     else
  7630                           
  7631  08CA  0000               	nop	;# 
  7632  08CB                     i1l176:	
  7633  08CB  0874               	movf	??_ISR+4,w
  7634  08CC  008A               	movwf	10
  7635  08CD  0873               	movf	??_ISR+3,w
  7636  08CE  0084               	movwf	4
  7637  08CF  0E72               	swapf	(??_ISR+2)^(0+4294967168),w
  7638  08D0  0083               	movwf	3
  7639  08D1  0EFE               	swapf	btemp,f
  7640  08D2  0E7E               	swapf	btemp,w
  7641  08D3  0009               	retfie
  7642  08D4                     __end_of_ISR:	
  7643  007E                     btemp	set	126	;btemp
  7644  007E                     wtemp0	set	126
  7645                           
  7646                           	psect	intentry
  7647  0004                     __pintentry:	
  7648                           ;incstack = 0
  7649                           ; Regs used in _ISR: [wreg-fsr0h+status,2+status,0]
  7650                           
  7651  0004                     interrupt_function:	
  7652  007E                     saved_w	set	btemp
  7653  0004  00FE               	movwf	btemp
  7654  0005  0E03               	swapf	3,w
  7655  0006  00F2               	movwf	??_ISR+2
  7656  0007  0804               	movf	4,w
  7657  0008  00F3               	movwf	??_ISR+3
  7658  0009  080A               	movf	10,w
  7659  000A  00F4               	movwf	??_ISR+4
  7660  000B  120A  158A  2894   	ljmp	_ISR


Data Sizes:
    Strings     33
    Constant    0
    Data        1
    BSS         5
    Persistent  0
    Stack       0

Auto Spaces:
    Space          Size  Autos    Used
    COMMON           14      7       9
    BANK0            80     70      74
    BANK1            80      0       0
    BANK3            96      0       0
    BANK2            96      0       0

Pointer List with Targets:

    lcd_wstring@a	PTR unsigned char  size(1) Largest target is 5
		 -> STR_97(CODE[2]), STR_96(CODE[2]), STR_95(CODE[2]), STR_94(CODE[2]), 
		 -> STR_93(CODE[2]), STR_92(CODE[2]), STR_91(CODE[2]), STR_90(CODE[2]), 
		 -> STR_89(CODE[2]), STR_88(CODE[2]), STR_87(CODE[2]), STR_86(CODE[2]), 
		 -> STR_85(CODE[2]), STR_84(CODE[2]), STR_83(CODE[2]), STR_82(CODE[2]), 
		 -> STR_81(CODE[2]), STR_80(CODE[2]), STR_79(CODE[2]), STR_78(CODE[2]), 
		 -> STR_77(CODE[2]), STR_76(CODE[2]), STR_75(CODE[2]), STR_74(CODE[2]), 
		 -> STR_73(CODE[2]), STR_72(CODE[2]), STR_71(CODE[2]), STR_70(CODE[2]), 
		 -> STR_69(CODE[2]), STR_68(CODE[2]), STR_67(CODE[2]), STR_66(CODE[2]), 
		 -> STR_65(CODE[2]), STR_64(CODE[2]), STR_63(CODE[2]), STR_62(CODE[2]), 
		 -> STR_61(CODE[2]), STR_60(CODE[2]), STR_59(CODE[2]), STR_58(CODE[2]), 
		 -> STR_57(CODE[2]), STR_56(CODE[2]), STR_55(CODE[2]), STR_54(CODE[2]), 
		 -> STR_53(CODE[2]), STR_52(CODE[2]), STR_51(CODE[2]), STR_50(CODE[2]), 
		 -> STR_49(CODE[2]), STR_48(CODE[2]), STR_47(CODE[2]), STR_46(CODE[2]), 
		 -> STR_45(CODE[2]), STR_44(CODE[2]), STR_43(CODE[2]), STR_42(CODE[2]), 
		 -> STR_41(CODE[2]), STR_40(CODE[2]), STR_39(CODE[2]), STR_38(CODE[2]), 
		 -> STR_37(CODE[2]), STR_36(CODE[2]), STR_35(CODE[2]), STR_34(CODE[2]), 
		 -> STR_33(CODE[2]), STR_32(CODE[2]), STR_31(CODE[2]), STR_30(CODE[2]), 
		 -> STR_29(CODE[2]), STR_28(CODE[2]), STR_27(CODE[2]), STR_26(CODE[2]), 
		 -> STR_25(CODE[2]), STR_24(CODE[2]), STR_23(CODE[2]), STR_22(CODE[2]), 
		 -> STR_21(CODE[2]), STR_20(CODE[2]), STR_19(CODE[2]), STR_18(CODE[2]), 
		 -> STR_17(CODE[2]), STR_16(CODE[2]), STR_15(CODE[2]), STR_14(CODE[2]), 
		 -> STR_13(CODE[2]), STR_12(CODE[2]), STR_11(CODE[2]), STR_10(CODE[2]), 
		 -> STR_9(CODE[2]), STR_8(CODE[2]), STR_7(CODE[2]), STR_6(CODE[2]), 
		 -> STR_5(CODE[2]), STR_4(CODE[2]), STR_3(CODE[5]), STR_2(CODE[4]), 
		 -> STR_1(CODE[4]), 


Critical Paths under _main in COMMON

    _main->_UART_Read
    _main->_initADC
    _lcd_start->_lcd_inst
    _lcd_start->_lcd_stinst1
    _lcd_start->_lcd_stinst5
    _lcd_stinst5->_lcd_databits
    _lcd_stinst1->_lcd_databits
    ___flmul->__Umul8_16
    _lcd_wstring->_lcd_writechar
    _lcd_writechar->_lcd_databits
    _lcd_cursor_set->_lcd_inst
    _lcd_inst->_lcd_databits

Critical Paths under _ISR in COMMON

    None.

Critical Paths under _main in BANK0

    _main->_dispval2
    _lcd_start->_lcd_inst
    _lcd_start->_lcd_stinst5
    _dispval2->___fltol
    _dispval1->___fltol
    ___fltol->___flmul
    ___flmul->__Umul8_16
    _cntdisp->___awdiv
    _lcd_wstring->_lcd_writechar
    _lcd_cursor_set->_lcd_inst
    ___fldiv->___xxtofl

Critical Paths under _ISR in BANK0

    None.

Critical Paths under _main in BANK1

    None.

Critical Paths under _ISR in BANK1

    None.

Critical Paths under _main in BANK3

    None.

Critical Paths under _ISR in BANK3

    None.

Critical Paths under _main in BANK2

    None.

Critical Paths under _ISR in BANK2

    None.

Call Graph Tables:

 ---------------------------------------------------------------------------------
 (Depth) Function   	        Calls       Base Space   Used Autos Params    Refs
 ---------------------------------------------------------------------------------
 (0) _main                                                13    13      0   47112
                                             57 BANK0     13    13      0
                    _UART_Data_Ready
                          _UART_Read
                         _UART_Write
                            ___fldiv
                           ___xxtofl
                            _cntdisp
                           _dispval1
                           _dispval2
                            _initADC
                     _lcd_cursor_set
                          _lcd_start
                        _lcd_wstring
                        _usart_setup
 ---------------------------------------------------------------------------------
 (1) _usart_setup                                          0     0      0       0
 ---------------------------------------------------------------------------------
 (1) _lcd_start                                            2     2      0     837
                                              2 BANK0      2     2      0
                           _lcd_inst
                        _lcd_stinst1
                        _lcd_stinst5
 ---------------------------------------------------------------------------------
 (2) _lcd_stinst5                                          3     3      0     279
                                              6 COMMON     1     1      0
                                              0 BANK0      2     2      0
                       _lcd_databits
 ---------------------------------------------------------------------------------
 (2) _lcd_stinst1                                          2     2      0     279
                                              6 COMMON     1     1      0
                                              0 BANK0      1     1      0
                       _lcd_databits
 ---------------------------------------------------------------------------------
 (1) _initADC                                              3     3      0      31
                                              5 COMMON     2     2      0
                                              0 BANK0      1     1      0
 ---------------------------------------------------------------------------------
 (1) _dispval2                                            13     9      4   13837
                                             44 BANK0     13     9      4
                            ___awdiv
                            ___awmod
                            ___flmul
                            ___fltol
                     _lcd_cursor_set
                        _lcd_wstring
 ---------------------------------------------------------------------------------
 (1) _dispval1                                            12     8      4   13837
                                             44 BANK0     12     8      4
                            ___awdiv
                            ___awmod
                            ___flmul
                            ___fltol
                     _lcd_cursor_set
                        _lcd_wstring
 ---------------------------------------------------------------------------------
 (2) ___fltol                                             11     7      4     381
                                             33 BANK0     11     7      4
                            ___flmul (ARG)
 ---------------------------------------------------------------------------------
 (2) ___flmul                                             26    18      8    3533
                                              7 BANK0     26    18      8
                          __Umul8_16
 ---------------------------------------------------------------------------------
 (3) __Umul8_16                                            9     7      2     980
                                              5 COMMON     2     0      2
                                              0 BANK0      7     7      0
 ---------------------------------------------------------------------------------
 (1) _cntdisp                                             11    11      0    9799
                                              8 BANK0     11    11      0
                            ___awdiv
                            ___awmod
                     _lcd_cursor_set
                        _lcd_wstring
 ---------------------------------------------------------------------------------
 (1) _lcd_wstring                                          3     3      0    3901
                                              2 BANK0      3     3      0
                      _lcd_writechar
 ---------------------------------------------------------------------------------
 (2) _lcd_writechar                                        3     3      0     279
                                              6 COMMON     1     1      0
                                              0 BANK0      2     2      0
                       _lcd_databits
 ---------------------------------------------------------------------------------
 (1) _lcd_cursor_set                                       4     3      1    2631
                                              2 BANK0      4     3      1
                           _lcd_inst
 ---------------------------------------------------------------------------------
 (2) _lcd_inst                                             3     3      0     279
                                              6 COMMON     1     1      0
                                              0 BANK0      2     2      0
                       _lcd_databits
 ---------------------------------------------------------------------------------
 (3) _lcd_databits                                         1     1      0     248
                                              5 COMMON     1     1      0
 ---------------------------------------------------------------------------------
 (2) ___awmod                                              7     3      4    1513
                                              5 COMMON     1     1      0
                                              0 BANK0      6     2      4
 ---------------------------------------------------------------------------------
 (2) ___awdiv                                              9     5      4    1525
                                              5 COMMON     1     1      0
                                              0 BANK0      8     4      4
 ---------------------------------------------------------------------------------
 (1) ___xxtofl                                            14    10      4     656
                                              0 BANK0     14    10      4
 ---------------------------------------------------------------------------------
 (1) ___fldiv                                             26    18      8    1425
                                             14 BANK0     26    18      8
                           ___xxtofl (ARG)
 ---------------------------------------------------------------------------------
 (1) _UART_Write                                           1     1      0      22
                                              5 COMMON     1     1      0
 ---------------------------------------------------------------------------------
 (1) _UART_Read                                            4     4      0      34
                                              5 COMMON     2     2      0
                                              0 BANK0      2     2      0
 ---------------------------------------------------------------------------------
 (1) _UART_Data_Ready                                      0     0      0       0
 ---------------------------------------------------------------------------------
 Estimated maximum stack depth 3
 ---------------------------------------------------------------------------------
 (Depth) Function   	        Calls       Base Space   Used Autos Params    Refs
 ---------------------------------------------------------------------------------
 (5) _ISR                                                  5     5      0       0
                                              0 COMMON     5     5      0
 ---------------------------------------------------------------------------------
 Estimated maximum stack depth 5
 ---------------------------------------------------------------------------------

 Call Graph Graphs:

 _main (ROOT)
   _UART_Data_Ready
   _UART_Read
   _UART_Write
   ___fldiv
     ___xxtofl (ARG)
   ___xxtofl
   _cntdisp
     ___awdiv
     ___awmod
     _lcd_cursor_set
       _lcd_inst
         _lcd_databits
     _lcd_wstring
       _lcd_writechar
         _lcd_databits
   _dispval1
     ___awdiv
     ___awmod
     ___flmul
       __Umul8_16
     ___fltol
       ___flmul (ARG)
         __Umul8_16
     _lcd_cursor_set
       _lcd_inst
         _lcd_databits
     _lcd_wstring
       _lcd_writechar
         _lcd_databits
   _dispval2
     ___awdiv
     ___awmod
     ___flmul
       __Umul8_16
     ___fltol
       ___flmul (ARG)
         __Umul8_16
     _lcd_cursor_set
       _lcd_inst
         _lcd_databits
     _lcd_wstring
       _lcd_writechar
         _lcd_databits
   _initADC
   _lcd_cursor_set
     _lcd_inst
       _lcd_databits
   _lcd_start
     _lcd_inst
       _lcd_databits
     _lcd_stinst1
       _lcd_databits
     _lcd_stinst5
       _lcd_databits
   _lcd_wstring
     _lcd_writechar
       _lcd_databits
   _usart_setup

 _ISR (ROOT)

 Address spaces:
Name               Size   Autos  Total    Cost      Usage
BANK3               60      0       0       9        0.0%
BITBANK3            60      0       0       8        0.0%
SFR3                 0      0       0       4        0.0%
BITSFR3              0      0       0       4        0.0%
BANK2               60      0       0      11        0.0%
BITBANK2            60      0       0      10        0.0%
SFR2                 0      0       0       5        0.0%
BITSFR2              0      0       0       5        0.0%
BANK1               50      0       0       7        0.0%
BITBANK1            50      0       0       6        0.0%
SFR1                 0      0       0       2        0.0%
BITSFR1              0      0       0       2        0.0%
BANK0               50     46      4A       5       92.5%
BITBANK0            50      0       0       4        0.0%
SFR0                 0      0       0       1        0.0%
BITSFR0              0      0       0       1        0.0%
COMMON               E      7       9       1       64.3%
BITCOMMON            E      0       0       0        0.0%
CODE                 0      0       0       0        0.0%
DATA                 0      0      53      12        0.0%
ABS                  0      0      53       3        0.0%
NULL                 0      0       0       0        0.0%
STACK                0      0       0       2        0.0%
EEDATA             100      0       0       0        0.0%


Microchip Technology PIC Macro Assembler V2.10 build 88905656 
Symbol Table                                                                                   Fri Feb 07 23:07:23 2020

            ___fldiv@aexp 0047              ___fldiv@bexp 0046                         pc 0002  
            ___fldiv@sign 003F               __CFG_CP$OFF 0000                        l30 0870  
                      l31 0876                        l32 0877                        l41 0893  
                      l33 087D                        l25 085F                        l34 087E  
                      l26 0862                        l50 1721                        l35 0884  
                      l27 0868                        l36 0885                        l28 0869  
                      l37 088B                        l29 086F                        l53 1768  
                      l38 088C                        l39 0892                        l47 17B0  
                      l56 0855                        l65 17D6                        l74 17FF  
                      l59 178C              ?_lcd_stinst1 0070                        l89 0A08  
            ?_lcd_stinst5 0070              ___awdiv@sign 0025                        fsr 0004  
            ?_lcd_wstring 0070       __Umul8_16@word_mpld 0024                       l105 0A0F  
                     l307 05B0                       l341 16F8                       l229 0E22  
                     l350 081A                       l182 0C50                       l344 1702  
                     l353 07FB                       l338 1744                       l186 0C76  
                     l347 080C                       l348 080B                       l268 07CC  
                     l605 092E                       l632 0A76                       l625 0A8B  
                     l810 0FE3                       l635 0A8B                       l812 0FF3  
                     l804 0F71                       l592 0997                       l840 0374  
                     l834 02EC                       l828 0380                       l790 0FFF  
                     l880 0B1D                       l872 0AF5                       l866 0AB0  
                     l788 0E7F                       l868 0B47                       l885 07E3  
                     l879 0B11                       l887 07F5                       _RA0 0028  
                     _RA1 0029                       _RA2 002A                       _RA3 002B  
                     _RA4 002C                       _RA5 002D                       _RA6 002E  
                     _RD0 0040                       _RA7 002F                       _RD1 0041  
            __CFG_CPD$OFF 0000                       _ISR 0894                       fsr0 0004  
            ___awmod@sign 0025              ___flmul@aexp 0035              ___flmul@bexp 003A  
            ___flmul@sign 0034              ___flmul@temp 003F              ___flmul@prod 003B  
          ??_lcd_databits 0075              __CFG_LVP$OFF 0000                      ?_ISR 0070  
            ___fltol@exp1 004B                      l3101 0ED0                      l3111 0EF5  
                    l3103 0ED8                      l3121 0F20                      l3113 0EF6  
                    l3105 0EDA                      l3041 0E23                      l4001 0701  
                    l3131 0F3D                      l3107 0EDF                      l3115 0EFF  
                    l3123 0F24                      l3051 0E3A                      l3043 0E2A  
                    l4011 0724                      l4003 0708                      l3141 0F55  
                    l3133 0F41                      l3125 0F2A                      l3117 0F11  
                    l3109 0EF1                      l3061 0E52                      l3053 0E3F  
                    l3045 0E30                      l4021 0760                      l4013 072B  
                    l4005 070F                      l4101 0482                      l3151 0F76  
                    l3143 0F56                      l3135 0F42                      l3127 0F32  
                    l3119 0F12                      l3071 0E67                      l3063 0E57  
                    l3055 0E47                      l3047 0E34                      l4031 0783  
                    l4023 0767                      l4007 0716                      l4103 048C  
                    l4111 04A4                      l3153 0F7B                      l3161 0FAC  
                    l3145 0F5A                      l3137 0F4B                      l3129 0F34  
                    l3081 0E87                      l3073 0E6C                      l3065 0E5D  
                    l3057 0E48                      l3049 0E35                      l4201 0D0C  
                    l2441 0A3B                      l2433 0A10                      l4033 078A  
                    l4025 076E                      l4009 071D                      l4041 079F  
                    l4017 0732                      l4121 04E5                      l4105 0493  
                    l4113 04C9                      l3171 0FE2                      l3163 0FB9  
                    l3155 0F89                      l3147 0F6E                      l3139 0F51  
                    l3091 0EA5                      l3083 0E93                      l3075 0E74  
                    l3067 0E61                      l3059 0E4A                      l4211 0D48  
                    l4203 0D13                      l2443 0A3C                      l2435 0A1D  
                    l4035 0791                      l4027 0775                      l4043 07C6  
                    l4019 0759                      l4131 0508                      l4123 04EC  
                    l4115 04D0                      l4107 049D                      l2701 16F8  
                    l3173 0FE9                      l3165 0FC7                      l3157 0F8D  
                    l3085 0E97                      l3077 0E75                      l3069 0E62  
                    l4301 0B15                      l4221 0D6B                      l4213 0D4F  
                    l4205 0D1A                      l2445 0A44                      l4037 0798  
                    l4029 077C                      l4141 0544                      l4133 050F  
                    l4125 04F3                      l4117 04D7                      l4061 03AD  
                    l2703 16FE                      l3175 0FED                      l3167 0FD6  
                    l3159 0FA6                      l3095 0EAE                      l3079 0E77  
                    l4311 0B3F                      l4303 0B1F                      l4223 0D72  
                    l4215 0D56                      l2463 0A6B                      l2455 0A52  
                    l2447 0A46                      l2439 0A26                      l4151 0567  
                    l4143 054B                      l4127 04FA                      l4119 04DE  
                    l4071 0404                      l4063 03C0                      l3177 0FEF  
                    l3169 0FDA                      l3097 0EC0                      l3089 0EA0  
                    l4305 0B35                      l4241 0DCA                      l4225 0D79  
                    l4217 0D5D                      l4233 0D8E                      l4209 0D21  
                    l3601 07D2                      l2465 0A7B                      l2449 0A4A  
                    l2457 0A64                      l4153 056E                      l4145 0552  
                    l4129 0501                      l4161 0583                      l4137 0516  
                    l4081 042D                      l4073 040B                      l4065 03D3  
                    l3099 0EC8                      l4307 0B3A                      l4251 0DED  
                    l4243 0DD1                      l4235 0DB5                      l4227 0D80  
                    l4219 0D64                      l3603 07D9                      l2467 0A80  
                    l4155 0575                      l4147 0559                      l4163 05AA  
                    l4139 053D                      l4091 0459                      l4083 0437  
                    l4075 0415                      l4067 03E6                      l4059 0381  
                    l4331 0B4C                      l4181 0812                      l4309 0B3E  
                    l3701 08D4                      l4253 0DF4                      l4245 0DD8  
                    l4237 0DBC                      l4229 0D87                      l3605 07DD  
                    l4157 057C                      l4149 0560                      l4093 0460  
                    l4085 043E                      l4077 041C                      l4069 03FA  
                    l3621 17A5                      l3613 178E                      l4341 0B58  
                    l4333 0B4F                      l4271 0A8F                      l3711 08E6  
                    l3703 08D7                      l4247 0DDF                      l4239 0DC3  
                    l4191 0CE9                      l3607 07EC                      l4095 046A  
                    l4087 0448                      l4079 0426                      l3631 1710  
                    l3623 17A8                      l3615 1791                      l2671 1726  
                    l4351 0B69                      l4343 0B5C                      l4335 0B55  
                    l4273 0A94                      l3721 08FF                      l3713 08EB  
                    l3705 08DB                      l3561 0866                      l3641 17BE  
                    l4249 0DE6                      l4257 0DFB                      l4193 0CF0  
                    l4185 0C7E                      l3609 07F1                      l3801 0160  
                    l4097 0471                      l4089 044F                      l3633 1717  
                    l3625 1706                      l3617 1797                      l2681 1731  
                    l2673 1729                      l4361 0B92                      l4353 0B6E  
                    l4345 0B5E                      l4337 0B56                      l4329 0B48  
                    l4179 080A                      l4291 0ADE                      l4283 0AC1  
                    l4275 0A98                      l3723 0903                      l3715 08F1  
                    l3731 0920                      l3707 08E0                      l3571 0889  
                    l3563 086D                      l3643 17C5                      l3651 17DD  
                    l4195 0CF7                      l4187 0CDB                      l3811 01E0  
                    l3803 017D                      l4099 047B                      l3635 171A  
                    l3627 1707                      l3619 179A                      l2691 173A  
                    l2683 1732                      l2675 172A                      l4371 0BEA  
                    l4363 0B9E                      l4355 0B7A                      l4347 0B63  
                    l4339 0B57                      l4293 0AEC                      l4285 0AC6  
                    l4277 0AA8                      l3661 0936                      l3733 0925  
                    l3725 090D                      l3717 08F4                      l3709 08E2  
                    l3573 0890                      l3565 0874                      l3557 0857  
                    l3581 1752                      l3645 17CB                      l3637 17B4  
                    l3653 17EA                      l4197 0CFE                      l4189 0CE2  
                    l3821 0298                      l3813 020D                      l3805 018D  
                    l3741 0027                      l4621 04A9                      l3901 09A2  
                    l3629 170D                      l2693 173D                      l2685 1733  
                    l2677 172B                      l2669 1722                      l4381 0C4E  
                    l4373 0C1E                      l4365 0BA4                      l4357 0B80  
                    l4349 0B63                      l4295 0AFC                      l4287 0AD3  
                    l4279 0AB8                      l3671 094A                      l3663 093B  
                    l3735 092A                      l3727 0913                      l3719 08FB  
                    l3567 087B                      l3559 085B                      l3583 175D  
                    l3575 1746                      l3647 17D0                      l3639 17B9  
                    l3591 1773                      l3655 17F2                      l4199 0D05  
                    l3831 02BD                      l3823 02A1                      l3815 021D  
                    l3807 01AA                      l3751 003C                      l3743 002D  
                    l4631 07A6                      l4623 051D                      l3911 09B1  
                    l3903 09A5                      l2695 173E                      l2687 1736  
                    l2679 172E                      l4391 0C67                      l4383 0C51  
                    l4375 0C2B                      l4367 0BAC                      l4359 0B8C  
                    l2945 07F6                      l4297 0B07                      l4289 0ADA  
                    l3681 0960                      l3673 094C                      l3665 093D  
                    l3657 092F                      l3729 091A                      l3569 0882  
                    l3585 1760                      l3577 1749                      l3593 1776  
                    l3649 17DA                      l4633 0D28                      l3841 02D5  
                    l3833 02C6                      l3825 02AF                      l3817 024A  
                    l3809 01C3                      l3761 0059                      l3753 0044  
                    l3745 0031                      l4625 058A                      l3921 09C0  
                    l3913 09B4                      l3905 09A8                      l2697 1741  
                    l2689 1737                      l4393 0C6D                      l4385 0C59  
                    l4377 0C3A                      l4369 0BB4                      l4299 0B0B  
                    l3691 0983                      l3683 0964                      l3675 0952  
                    l3667 0941                      l3659 0932                      l3579 174F  
                    l3595 1781                      l3587 176A                      l4635 0D95  
                    l3851 0304                      l3843 02E9                      l3827 02B8  
                    l3835 02CC                      l3819 0270                      l3771 0070  
                    l3763 005D                      l3755 0046                      l3747 0032  
                    l3739 0020                      l4627 06C5                      l4619 09D9  
                    l3923 09C3                      l3915 09B7                      l3907 09AB  
                    l4395 0C6F                      l4387 0C5D                      l4379 0C44  
                    l3685 0975                      l3677 0955                      l3693 0989  
                    l3669 0946                      l3597 1784                      l3589 176D  
                    l4637 0E02                      l3861 033F                      l3853 0308  
                    l3837 02D0                      l3829 02BC                      l3773 0072  
                    l3765 005E                      l3757 004E                      l3749 0037  
                    l4629 0739                      l3941 05DD                      l3925 09C6  
                    l3917 09BA                      l3909 09AE                      l3933 09CF  
                    l4389 0C63                      l3695 098E                      l3687 097B  
                    l3679 095C                      l3599 07D0                      l3871 036C  
                    l3863 034E                      l3855 0321                      l3847 02F1  
                    l3839 02D1                      l3791 00E3                      l3783 008D  
                    l3775 007A                      l3767 0063                      l3759 0053  
                    l3951 0632                      l3943 05F0                      l3927 09C9  
                    l3919 09BD                      l3697 0993                      l3689 097C  
                    l3873 036D                      l3865 0358                      l3849 02F6  
                    l3857 0327                      l3793 010F                      l3785 009D  
                    l3777 007F                      l3769 0068                      l3961 0657  
                    l3953 0639                      l3945 0603                      l3929 09CC  
                    l3881 0825                      l3875 0378                      l3867 035A  
                    l3859 0334                      l3795 012B                      l3787 00AA  
                    l3779 0084                      l3971 067D                      l3963 065F  
                    l3955 0641                      l3947 0616                      l3939 05B1  
                    l3891 0843                      l3883 082B                      l3869 0368  
                    l3797 0147                      l3789 00C7                      l3981 06A2  
                    l3973 0684                      l3965 0666                      l3957 0648  
                    l3949 062A                      l3893 0849                      l3885 0831  
                    l3799 0150                      l3983 06AA                      l3975 068C  
                    l3967 066E                      l3959 0650                      l3991 06C0  
                    l3895 084F                      l3887 0837                      l3879 081B  
                    l3985 06B1                      l3977 0693                      l3969 0675  
                    l3993 06E5                      l3897 099B                      l3889 083D  
                    l3995 06EC                      l3987 06B9                      l3979 069B  
                    l3899 099F                      l3997 06F3                      l3999 06FA  
                    STR_1 100B                      STR_2 100F                      STR_3 1006  
                    STR_4 1015                      STR_5 100D                      STR_6 1011  
                    STR_7 1017                      STR_8 1019                      STR_9 101B  
                    _CREN 00C4                      u2110 16FE                      u2111 16FD  
                    u2200 0EA5                      u3000 007F                      u2201 0EA4  
                    u3001 007E                      u2210 0EDF                      u2130 0E34  
                    u3010 0084                      u2211 0EDE                      u2131 0E33  
                    u3011 0083                      u2300 0F41                      u2140 0E3A  
                    u2301 0F40                      u2141 0E39                      u3101 01D2  
                    u3021 00D5                      u2150 0E3F                      u3102 01D9  
                    u3022 00DC                      u2151 0E3E                      u3111 01FF  
                    u3103 01E0                      u3031 00F1                      u3023 00E3  
                    u2400 0FD6                      u2320 0F55                      u2240 0EF5  
                    u2160 0E61                      u3112 0206                      u3032 00F8  
                    u2401 0FD5                      u2321 0F54                      u2241 0EF4  
                    u2225 0EE1                      u2161 0E60                      u3121 022C  
                    u3113 020D                      u3041 011D                      u3033 00FF  
                    u2410 0FED                      u2330 0F5A                      u2170 0E67  
                    u3210 02D0                      u3130 0256                      u3122 0233  
                    u3042 0124                      u2411 0FEC                      u2331 0F59  
                    u2315 0F44                      u2235 0EEA                      u2171 0E66  
                    u3211 02CF                      u3123 023A                      u3051 0139  
                    u3043 012B                      u2340 0F6E                      u2260 0F11  
                    u2180 0E6C                      u3300 036C                      u3220 02D5  
                    u3052 0140                      u1700 0A6A                      u2405 0FD2  
                    u2341 0F6D                      u2261 0F10                      u2181 0E6B  
                    u3301 036B                      u3221 02D4                      u3205 02BF  
                    u3141 0262                      u3053 0147                      u1701 0A69  
                    u3310 0812                      u2350 0F75                      u2270 0F2A  
                    u2190 0E87                      u3230 02E9                      u3150 027E  
                    u3142 0269                      u3311 0811                      u2351 0F74  
                    u2271 0F29                      u2255 0EF8                      u2191 0E86  
                    u3231 02E8                      u3143 0270                      u3135 0251  
                    u3071 016F                      u2360 0F7B                      u2280 0F32  
                    u3400 0B0B                      u3320 0A94                      u3240 02F0  
                    u3072 0176                      u1720 0A7B                      u1640 0A1D  
                    u2361 0F7A                      u2281 0F31                      u2265 0F0D  
                    u3401 0B0A                      u3321 0A93                      u3241 02EF  
                    u3161 028A                      u3081 019C                      u3073 017D  
                    u3065 0149                      u1721 0A7A                      u1641 0A1C  
                    u2370 0F8D                      u3410 0B11                      u3330 0A98  
                    u2610 085B                      u3250 02F6                      u3162 0291  
                    u3082 01A3                      u1730 0A80                      u1650 0A34  
                    u2371 0F8C                      u3411 0B10                      u3331 0A97  
                    u2611 085A                      u3251 02F5                      u3163 0298  
                    u3155 0279                      u3083 01AA                      u1731 0A7F  
                    u1715 0A6D                      u2380 0F9C                      u3420 0B15  
                    u3340 0AB8                      u2620 0866                      u3260 0308  
                    u1660 0A4A                      u3421 0B14                      u3341 0AB7  
                    u2621 0865                      u3261 0307                      u1661 0A49  
                    u2390 0FB9                      u3430 0B2A                      u2630 086D  
                    u2710 07F1                      u3270 0317                      u3190 02BC  
                    u1670 0A51                      u2391 0FB8                      u2295 0F36  
                    u2631 086C                      u2711 07F0                      u3191 02BB  
                    u3175 029A                      u3095 01AC                      u1671 0A50  
                    u1655 0A2F                      u3440 0B3A                      u3360 0AD9  
                    u2640 0874                      u2720 17B9                      u3280 0334  
                    u2385 0F97                      u3441 0B39                      u3361 0AD8  
                    u2641 0873                      u2721 17B8                      u2705 07E4  
                    u3281 0333                      u3185 02B1                      u3450 0B3E  
                    u2810 0975                      u2650 087B                      u2730 17CB  
                    u3290 034E                      u1690 0A63                      u2395 0FB5  
                    u3451 0B3D                      u3435 0B25                      u3355 0ACB  
                    u2811 0974                      u2651 087A                      u2731 17CA  
                    u3291 034D                      u3275 0312                      u1691 0A62  
                    u3507 17A0                      u3380 0AFB                      u2900 090D  
                    u2660 0882                      u2740 17FF                      u3460 0C44  
                    u3381 0AFA                      u2805 0965                      u2901 090C  
                    u2661 0881                      u2741 17FE                      u3285 0330  
                    u1685 0A53                      u3517 17AC                      u3461 0C43  
                    u2830 0989                      u2750 0936                      u2670 0889  
                    u3470 0C59                      u3375 0AED                      u2831 0988  
                    u2815 0971                      u2751 0935                      u2671 0888  
                    u3295 034A                      u3527 1712                      u3471 0C58  
                    u2840 098E                      u2760 0941                      u2920 0920  
                    u2680 0890                      u3480 0C6D                      u2841 098D  
                    u2825 097D                      u2761 0940                      u2921 091F  
                    u2905 0909                      u2681 088F                      u3537 171C  
                    u3481 0C6C                      u2770 0952                      u2930 0925  
                    u2850 08DB                      u2690 07DD                      u3395 0B00  
                    u2771 0951                      u2931 0924                      u2915 0914  
                    u2851 08DA                      u3547 177C                      u2691 07DC  
                    u2860 08E6                      u2940 0031                      u2861 08E5  
                    u3557 1788                      u2941 0030                      u2790 0964  
                    u2870 08F1                      u2950 0037                      u2791 0963  
                    u2871 08F0                      u3567 1758                      u2951 0036  
                    u2960 003C                      u2785 0956                      u3577 1764  
                    u2961 003B                      u3497 0821                      u2890 0903  
                    u2970 005D                      u2891 0902                      u2971 005C  
                    u2980 0063                      _RCIF 0065                      u2885 08F5  
                    u2981 0062                      u2990 0068                      u2991 0067  
                    _SPEN 00C7                      _TRMT 04C1                      _TXEN 04C5  
                    _SYNC 04C4              __CFG_WRT$OFF 0000                      _main 0B48  
             _usart_setup 1722                      _send 0077               dispval1@ent 0054  
                    btemp 007E               dispval2@ent 0055                      start 000E  
          ?_lcd_writechar 0070             __CFG_IESO$OFF 0000           ___fldiv@new_exp 0040  
             cntdisp@ent1 002A               cntdisp@ent2 002C               cntdisp@ent3 002E  
            lcd_inst@iord 0076               cntdisp@vals 0031                     ??_ISR 0070  
           ___fltol@sign1 004A                     ?_main 0070               initADC@var1 0020  
         __end_of___fldiv 1000           __end_of___awdiv 0998                     STR_10 101D  
                   STR_11 101F                     STR_20 101D                     STR_12 1021  
                   STR_21 101F                     STR_13 1023                     STR_14 1015  
                   STR_30 101D                     STR_22 1021                     STR_15 100D  
                   STR_31 101F                     STR_23 1023                     STR_24 1015  
                   STR_16 1011                     STR_40 101D                     STR_32 1021  
                   STR_25 100D                     STR_17 1017                     STR_41 101F  
                   STR_33 1023             __CFG_WDTE$OFF 0000                     STR_34 1015  
                   STR_26 1011                     STR_18 1019                     STR_50 101B  
                   STR_42 1021                     STR_35 100D                     STR_27 1017  
                   STR_19 101B                     STR_51 101D                     STR_43 1023  
                   STR_36 1011                     STR_28 1019                     STR_60 101B  
                   STR_52 101F                     STR_44 1013           __end_of___awmod 092F  
                   STR_45 1015                     STR_37 1017                     STR_29 101B  
                   STR_61 101D                     STR_53 1021                     STR_46 100D  
                   STR_70 1019                     STR_38 1019                     STR_62 101F  
                   STR_54 1023                     STR_55 1015                     STR_47 1011  
                   STR_71 101B                     STR_39 101B                     STR_63 1021  
                   STR_56 100D                     STR_80 1017                     STR_48 1017  
                   STR_72 101D                     STR_64 1023                     STR_57 1011  
                   STR_81 1019                     STR_49 1019                     STR_73 101F  
                   STR_65 1025                     STR_66 1015                     STR_90 1017  
                   STR_58 1017                     STR_82 101B                     STR_74 1021  
                   STR_67 100D                     STR_91 1019                     STR_59 1019  
                   STR_83 101D                     STR_75 1023                     STR_76 1013  
                   STR_68 1011                     STR_92 101B                     STR_84 101F  
                   STR_77 1015                     STR_69 1017                     STR_93 101D  
                   STR_85 1021                     STR_78 100D                     STR_94 101F  
                   STR_86 1023                     STR_87 1015                     STR_79 1011  
                   STR_95 1021                     STR_88 100D                     STR_96 1023  
         __end_of___flmul 0381                     STR_89 1011                     STR_97 1025  
         __end_of___fltol 0A8C                     _ANSEL 0188           ___awdiv@divisor 0020  
                   i1l171 08C1                     i1l174 08CA                     i1l176 08CB  
                   i1l168 08C3           ___awdiv@counter 0024                     _RCREG 001A  
                   _SPBRG 0099                     _TRISA 0085                     _TRISB 0086  
                   _TRISD 0088                     _TXREG 0019            __CFG_FCMEN$OFF 0000  
             ?_UART_Write 0070        __size_of_UART_Read 0011           __end_of_cntdisp 0E23  
         __end_of_initADC 0A10              dispval1@dec1 0052              dispval1@dec2 0050  
            dispval2@dec1 0053              dispval2@dec2 0051              dispval1@vals 0056  
            dispval2@vals 0057            __CFG_BOREN$OFF 0000                     pclath 000A  
                   status 0003                     wtemp0 007E              cntdisp@datac 0030  
          __CFG_MCLRE$OFF 0000           __initialization 0011              __end_of_main 0C7B  
            lcd_wstring@a 0024              lcd_wstring@i 0022                    ??_main 0059  
                  _ADCON0 001F                    _ADCON1 009F                    _ADRESH 001E  
        ___awdiv@dividend 0022                    _ANSELH 0189                    i1l3241 0894  
                  i1l3251 08A7                    i1l3243 089A                    i1l3261 08C7  
                  i1l3253 08AB                    i1l3245 089C                    i1l3255 08AF  
                  i1l3247 08A0                    i1l3249 08A4                    i1l3259 08B1  
                  i1l4639 08B9                    _INTCON 000B                    u256_20 089A  
                  u256_21 0899                    u257_20 08C7                    u257_21 08C6  
         ??_lcd_writechar 0020                    _TRISC6 043E                    _TRISC7 043F  
        __end_of___xxtofl 0B48            __CFG_PWRTE$OFF 0000          __end_of_lcd_inst 1769  
       __end_of_UART_Read 081B          __end_of_dispval1 07CD          __end_of_dispval2 05B1  
     __size_of_UART_Write 000C      __end_of_lcd_databits 0894                 ??___fldiv 0036  
               ??___awdiv 0075                 ??___awmod 0075                 ??___flmul 002F  
               ??___fltol 0045          ___awdiv@quotient 0026           ___awmod@divisor 0020  
           dispval1@dataf 004C           ___awmod@counter 0024             dispval2@dataf 004C  
    __size_of_lcd_stinst1 001F      __size_of_lcd_stinst5 0024                 ??_cntdisp 0028  
               ??_initADC 0075      __size_of_lcd_wstring 0029        __size_of__Umul8_16 0029  
                  saved_w 007E          ??_lcd_cursor_set 0023              ___xxtofl@arg 002A  
            ___xxtofl@exp 0029              ___xxtofl@val 0020   __end_of__initialization 001C  
              ___fltol@f1 0041            __pcstackCOMMON 0070              __pidataBANK0 07FC  
        lcd_databits@data 0075        __size_of_lcd_start 003B                __pbssBANK0 0065  
            ?_usart_setup 0070  __size_of_UART_Data_Ready 0006         __end_of__Umul8_16 07F6  
              __pmaintext 0B48                __pintentry 0004                   _ADCval1 0067  
                 _ADCval2 0066            UART_Read@intro 0020                 ?___xxtofl 0020  
            ??_UART_Write 0075                 ?_lcd_inst 0070                 ?_dispval1 004C  
               ?_dispval2 004C                __stringtab 1000     __size_of_lcd_databits 003E  
       __end_of_lcd_start 0856                   ___fldiv 0E23                   ___awdiv 092F  
                 ___awmod 08D4                   ___flmul 0020                   ___fltol 0A10  
      __end_of_UART_Write 1703                   __ptext1 1722                   __ptext2 081B  
                 __ptext3 178D                   __ptext4 1703                   __ptext5 0998  
                 __ptext6 0381                   __ptext7 05B1                   __ptext8 0A10  
                 __ptext9 0020                   _cntdisp 0C7B                   _initADC 0998  
            __size_of_ISR 0040                ??___xxtofl 0024          ___awmod@dividend 0022  
                 _recived 0065                ??_lcd_inst 0020              _lcd_databits 0856  
              ??_dispval1 0077                ??_dispval2 0050      end_of_initialization 001C  
               _RCSTAbits 0018         ??_UART_Data_Ready 0075                 _UART_Read 080A  
          UART_Write@data 0075             ___xxtofl@sign 0028               ___fldiv@grs 0042  
             ___fldiv@rem 003B               ___flmul@grs 0036                 _TXSTAbits 0098  
   __end_of_lcd_writechar 178D            lcd_writechar@m 0076      __size_of_usart_setup 0023  
         lcd_cursor_set@a 0025           lcd_cursor_set@x 0024           lcd_cursor_set@y 0022  
           ??_lcd_stinst1 0076             ??_lcd_stinst5 0020                ?_UART_Read 0070  
             _BAUDCTLbits 0187             ??_lcd_wstring 0077       start_initialization 0011  
             __end_of_ISR 08D4  __CFG_FOSC$INTRC_NOCLKOUT 0000                 __Umul8_16 07CD  
             __pdataBANK0 0068                 ___fldiv@a 002E                 ___fldiv@b 0032  
     __end_of_lcd_stinst1 1722       __end_of_lcd_stinst5 17B1                 ___flmul@a 002B  
               ___flmul@b 0027               __pbssCOMMON 0077                 ___latbits 0002  
           __pcstackBANK0 0020       __end_of_lcd_wstring 1800         __size_of___xxtofl 00BC  
       __size_of_lcd_inst 0024         __size_of_dispval1 021C         __size_of_dispval2 0230  
 __size_of_lcd_cursor_set 0026                  ?___fldiv 002E                  ?___awdiv 0020  
                ?___awmod 0020                  ?___flmul 0027                  ?___fltol 0041  
              ?__Umul8_16 0075               ??_UART_Read 0075                 __pstrings 1000  
               _lcd_start 081B                  ?_cntdisp 0070                  ?_initADC 0070  
       interrupt_function 0004           _UART_Data_Ready 07F6                  _PIE1bits 008C  
                _PIR1bits 000C               _lcd_stinst1 1703               _lcd_stinst5 178D  
              ?_lcd_start 0070                _ADCON0bits 001F               __stringbase 1005  
              _ADCON1bits 009F               _lcd_wstring 17D7                 main@valf1 005D  
               main@valf2 0061                _ADCchannel 0078               ??__Umul8_16 0020  
        __size_of___fldiv 01DD          __size_of___awdiv 0069          __size_of___awmod 005B  
        __size_of___flmul 0361          __size_of___fltol 007C        __end_of__stringtab 1006  
        __size_of_cntdisp 01A8          __size_of_initADC 0078                  ___xxtofl 0A8C  
                __ptext10 07CD                  __ptext11 0C7B                  __ptext20 0E23  
                __ptext12 17D7                  __ptext21 16F7                  __ptext13 1769  
                __ptext22 080A                  __ptext14 17B1                  __ptext23 07F6  
                __ptext15 1745                  __ptext24 0894                  __ptext16 0856  
                __ptext17 08D4                  __ptext18 092F                  __ptext19 0A8C  
 __end_of_UART_Data_Ready 07FC         __CFG_BOR4V$BOR40V 0000                  _lcd_inst 1745  
                _dispval1 05B1                  _dispval2 0381                  _contador 0068  
           ??_usart_setup 0075             __size_of_main 0133            _lcd_cursor_set 17B1  
             ??_lcd_start 0022    __size_of_lcd_writechar 0024                  intlevel1 0000  
  __end_of_lcd_cursor_set 17D7                 stringcode 1000       __end_of_usart_setup 1745  
         lcd_stinst1@iord 0020           lcd_stinst5@iord 0076    __Umul8_16@multiplicand 0075  
                stringdir 1000                  stringtab 1000                _UART_Write 16F7  
        ?_UART_Data_Ready 0070             ?_lcd_databits 0070      __Umul8_16@multiplier 0026  
         ?_lcd_cursor_set 0022             _lcd_writechar 1769         __Umul8_16@product 0022  
